(lp0
I4
aI6
aI5
aI10
aI10
aI1
aI1
aI1
aI4
aI1
aI6
aI6
aI6
aI7
aI10
aI1
aI9
aI4
aI7
aI1
aI10
aI2
aI1
aI2
aI6
aI4
aI6
aI1
aI1
aI5
aI2
aI1
aI1
aI6
aI9
aI10
aI1
aI10
aI1
aI1
aI1
aI8
aI1
aI1
aI5
aI10
aI10
aI1
aI8
aI2
aI10
aI3
aI1
aI1
aI7
aI1
aI7
aI4
aI2
aI6
aI4
aI1
aI1
aI5
aI1
aI8
aI1
aI1
aI6
aI5
aI6
aI1
aI3
aI6
aI6
aI1
aI5
aI9
aI8
aI1
aI4
aI4
aI1
aI6
aI4
aI1
aI1
aI1
aI5
aI1
aI10
aI8
aI1
aI10
aI10
aI1
aI1
aI6
aI6
aI1
aI10
aI6
aI10
aI6
aI10
aI10
aI5
aI8
aI1
aI5
aI1
aI1
aI2
aI1
aI7
aI7
aI10
aI1
aI5
aI7
aI4
aI10
aI10
aI1
aI4
aI10
aI3
aI6
aI9
aI10
aI1
aI6
aI3
aI1
aI1
aI1
aI2
aI5
aI6
aI3
aI1
aI4
aI3
aI1
aI10
aI5
aI10
aI10
aI1
aI6
a.