(lp0
(lp1
F0.0
aF0.0
aF0.0
aF100.0
aF50.0
aF0.0
aF0.0
aF100.0
aF100.0
aF0.0
aF0.0
aF50.0
aF100.0
aF0.0
aF50.0
aF50.0
aF0.0
aF50.0
aF50.0
aF0.0
aa(lp2
F0.0
aF0.0
aF0.0
aF52.43
aF23.17
aF0.0
aF0.0
aF73.17
aF76.82
aF0.0
aF0.0
aF60.97
aF90.24
aF4.87
aF14.63
aF30.48
aF0.0
aF41.46
aF60.97
aF20.73
aa(lp3
F0.33
aF3.09
aF3.09
aF24.72
aF2.98
aF0.0
aF0.0
aF34.87
aF35.2
aF0.0
aF0.0
aF8.6
aF37.74
aF0.44
aF1.65
aF20.97
aF0.11
aF25.38
aF8.6
aF7.06
aa(lp4
F0.0
aF0.0
aF0.0
aF100.0
aF50.0
aF0.0
aF0.0
aF100.0
aF100.0
aF0.0
aF0.0
aF50.0
aF100.0
aF0.0
aF50.0
aF50.0
aF0.0
aF50.0
aF50.0
aF0.0
aa(lp5
F0.0
aF0.0
aF0.0
aF46.37
aF28.98
aF0.0
aF0.0
aF84.05
aF84.05
aF0.0
aF0.0
aF63.76
aF92.75
aF2.89
aF20.28
aF31.88
aF0.0
aF49.27
aF63.76
aF31.88
aa(lp6
F0.0
aF0.0
aF0.0
aF33.33
aF8.33
aF0.0
aF0.0
aF41.66
aF41.66
aF0.0
aF0.0
aF0.0
aF41.66
aF0.0
aF0.0
aF0.0
aF0.0
aF0.0
aF0.0
aF0.0
aa(lp7
F0.0
aF0.0
aF0.0
aF25.0
aF0.0
aF0.0
aF0.0
aF25.0
aF25.0
aF0.0
aF0.0
aF0.0
aF25.0
aF0.0
aF0.0
aF12.5
aF0.0
aF12.5
aF0.0
aF0.0
aa(lp8
F0.0
aF0.0
aF8.33
aF33.33
aF18.05
aF0.0
aF0.0
aF55.55
aF59.72
aF0.0
aF0.0
aF19.44
aF62.5
aF0.0
aF19.44
aF20.83
aF0.0
aF29.16
aF19.44
aF11.11
aa(lp9
F0.33
aF3.09
aF3.09
aF24.61
aF2.98
aF0.0
aF0.0
aF34.87
aF35.2
aF0.0
aF0.0
aF8.6
aF37.74
aF0.44
aF1.65
aF20.86
aF0.11
aF25.38
aF8.6
aF7.06
aa(lp10
F0.0
aF0.0
aF0.0
aF18.75
aF0.0
aF0.0
aF0.0
aF18.75
aF18.75
aF0.0
aF0.0
aF25.0
aF31.25
aF0.0
aF12.5
aF6.25
aF0.0
aF12.5
aF25.0
aF18.75
aa(lp11
F0.0
aF0.0
aF0.0
aF25.0
aF0.0
aF0.0
aF0.0
aF50.0
aF50.0
aF0.0
aF0.0
aF0.0
aF50.0
aF0.0
aF0.0
aF0.0
aF0.0
aF0.0
aF0.0
aF0.0
aa(lp12
F0.0
aF0.0
aF0.0
aF47.22
aF26.38
aF0.0
aF0.0
aF72.22
aF76.38
aF0.0
aF0.0
aF54.16
aF91.66
aF0.0
aF13.88
aF27.77
aF0.0
aF40.27
aF54.16
aF25.0
aa(lp13
F0.0
aF0.0
aF0.0
aF46.37
aF27.53
aF0.0
aF0.0
aF84.05
aF84.05
aF0.0
aF0.0
aF63.76
aF92.75
aF2.89
aF27.53
aF31.88
aF0.0
aF49.27
aF63.76
aF31.88
aa(lp14
F0.0
aF0.0
aF0.0
aF65.37
aF10.03
aF0.0
aF0.0
aF86.4
aF77.99
aF0.0
aF0.0
aF45.63
aF91.58
aF0.32
aF6.14
aF39.15
aF0.0
aF40.45
aF45.63
aF11.0
aa(lp15
F0.0
aF0.0
aF0.0
aF20.0
aF0.0
aF0.0
aF0.0
aF60.0
aF60.0
aF0.0
aF0.0
aF0.0
aF60.0
aF0.0
aF0.0
aF40.0
aF0.0
aF40.0
aF0.0
aF0.0
aa(lp16
F0.0
aF0.0
aF0.0
aF16.66
aF0.0
aF0.0
aF0.0
aF33.33
aF33.33
aF0.0
aF0.0
aF0.0
aF33.33
aF0.0
aF0.0
aF0.0
aF0.0
aF0.0
aF0.0
aF0.0
aa(lp17
F0.0
aF0.0
aF8.75
aF31.25
aF16.25
aF0.0
aF0.0
aF60.0
aF60.0
aF0.0
aF0.0
aF26.25
aF65.0
aF0.0
aF13.75
aF18.75
aF0.0
aF31.25
aF26.25
aF13.75
aa(lp18
F0.0
aF0.0
aF0.0
aF33.33
aF0.0
aF0.0
aF0.0
aF25.0
aF25.0
aF0.0
aF0.0
aF16.66
aF25.0
aF0.0
aF0.0
aF0.0
aF0.0
aF16.66
aF16.66
aF0.0
aa(lp19
F0.0
aF0.0
aF8.75
aF31.25
aF16.25
aF0.0
aF0.0
aF60.0
aF60.0
aF0.0
aF0.0
aF26.25
aF65.0
aF0.0
aF13.75
aF18.75
aF0.0
aF31.25
aF26.25
aF13.75
aa(lp20
F0.0
aF0.0
aF0.0
aF49.31
aF26.02
aF0.0
aF0.0
aF72.6
aF76.71
aF0.0
aF0.0
aF54.79
aF91.78
aF0.0
aF13.69
aF30.13
aF0.0
aF41.09
aF54.79
aF23.28
aa(lp21
F0.0
aF0.0
aF0.0
aF5.88
aF0.0
aF0.0
aF0.0
aF5.88
aF5.88
aF0.0
aF0.0
aF0.0
aF5.88
aF0.0
aF0.0
aF0.0
aF0.0
aF0.0
aF0.0
aF5.88
aa(lp22
F0.0
aF0.0
aF0.0
aF42.85
aF28.57
aF0.0
aF0.0
aF42.85
aF42.85
aF0.0
aF0.0
aF0.0
aF42.85
aF0.0
aF0.0
aF0.0
aF0.0
aF0.0
aF0.0
aF0.0
aa(lp23
F0.0
aF0.0
aF8.33
aF33.33
aF18.05
aF0.0
aF0.0
aF55.55
aF59.72
aF0.0
aF0.0
aF19.44
aF62.5
aF0.0
aF9.72
aF20.83
aF0.0
aF29.16
aF19.44
aF11.11
aa(lp24
F0.0
aF0.0
aF0.0
aF12.5
aF0.0
aF0.0
aF0.0
aF37.5
aF37.5
aF0.0
aF0.0
aF0.0
aF37.5
aF0.0
aF0.0
aF0.0
aF0.0
aF25.0
aF0.0
aF0.0
aa(lp25
F0.0
aF0.0
aF8.75
aF31.25
aF16.25
aF0.0
aF0.0
aF60.0
aF60.0
aF0.0
aF0.0
aF26.25
aF65.0
aF0.0
aF13.75
aF18.75
aF0.0
aF31.25
aF26.25
aF13.75
aa(lp26
F0.0
aF0.0
aF8.75
aF31.25
aF16.25
aF0.0
aF0.0
aF60.0
aF60.0
aF0.0
aF0.0
aF26.25
aF65.0
aF0.0
aF13.75
aF18.75
aF0.0
aF31.25
aF26.25
aF13.75
aa(lp27
F0.0
aF0.0
aF0.0
aF14.28
aF0.0
aF0.0
aF0.0
aF28.57
aF28.57
aF0.0
aF0.0
aF0.0
aF28.57
aF0.0
aF0.0
aF14.28
aF0.0
aF14.28
aF0.0
aF0.0
aa(lp28
F0.0
aF0.0
aF0.0
aF14.7
aF0.0
aF0.0
aF0.0
aF17.64
aF17.64
aF0.0
aF0.0
aF2.94
aF17.64
aF0.0
aF0.0
aF11.76
aF0.0
aF14.7
aF2.94
aF2.94
aa(lp29
F0.0
aF0.0
aF0.0
aF22.72
aF13.63
aF0.0
aF0.0
aF45.45
aF36.36
aF0.0
aF0.0
aF18.18
aF45.45
aF0.0
aF0.0
aF13.63
aF0.0
aF13.63
aF18.18
aF0.0
aa(lp30
F0.0
aF0.0
aF0.0
aF57.14
aF28.57
aF0.0
aF0.0
aF57.14
aF57.14
aF0.0
aF0.0
aF14.28
aF57.14
aF0.0
aF0.0
aF14.28
aF0.0
aF14.28
aF14.28
aF0.0
aa(lp31
F0.33
aF3.09
aF3.09
aF24.61
aF2.98
aF0.0
aF0.0
aF34.87
aF35.2
aF0.0
aF0.0
aF8.6
aF37.74
aF0.44
aF1.65
aF20.86
aF0.11
aF25.38
aF8.6
aF7.06
aa(lp32
F0.0
aF0.0
aF0.0
aF100.0
aF50.0
aF0.0
aF0.0
aF100.0
aF100.0
aF0.0
aF0.0
aF50.0
aF100.0
aF0.0
aF50.0
aF50.0
aF0.0
aF50.0
aF50.0
aF0.0
aa(lp33
F0.0
aF0.0
aF0.0
aF66.08
aF9.65
aF0.0
aF0.0
aF86.38
aF78.46
aF0.0
aF0.0
aF54.45
aF92.07
aF0.24
aF4.7
aF40.59
aF0.0
aF49.75
aF54.45
aF15.09
aa(lp34
F0.0
aF0.0
aF0.0
aF100.0
aF50.0
aF0.0
aF0.0
aF100.0
aF100.0
aF0.0
aF0.0
aF50.0
aF100.0
aF0.0
aF50.0
aF50.0
aF0.0
aF50.0
aF50.0
aF0.0
aa(lp35
F0.0
aF0.0
aF0.0
aF49.31
aF26.02
aF0.0
aF0.0
aF72.6
aF76.71
aF0.0
aF0.0
aF61.64
aF91.78
aF0.0
aF13.69
aF30.13
aF0.0
aF41.09
aF61.64
aF23.28
aa(lp36
F0.0
aF0.0
aF8.75
aF31.25
aF16.25
aF0.0
aF0.0
aF60.0
aF60.0
aF0.0
aF0.0
aF26.25
aF65.0
aF0.0
aF13.75
aF18.75
aF0.0
aF31.25
aF26.25
aF13.75
aa(lp37
F0.0
aF0.0
aF8.75
aF31.25
aF16.25
aF0.0
aF0.0
aF60.0
aF60.0
aF0.0
aF0.0
aF26.25
aF65.0
aF0.0
aF13.75
aF18.75
aF0.0
aF31.25
aF26.25
aF13.75
aa(lp38
F0.0
aF0.0
aF0.0
aF57.14
aF6.66
aF0.0
aF0.0
aF83.8
aF72.38
aF0.0
aF0.0
aF39.04
aF89.52
aF0.0
aF0.0
aF35.23
aF0.0
aF35.23
aF39.04
aF10.47
aa(lp39
F0.0
aF0.0
aF0.0
aF33.33
aF0.0
aF0.0
aF0.0
aF44.44
aF44.44
aF0.0
aF0.0
aF0.0
aF44.44
aF0.0
aF0.0
aF0.0
aF0.0
aF0.0
aF0.0
aF0.0
aa(lp40
F0.0
aF0.0
aF0.0
aF17.39
aF0.0
aF0.0
aF0.0
aF26.08
aF26.08
aF0.0
aF0.0
aF10.86
aF26.08
aF0.0
aF0.0
aF15.21
aF0.0
aF19.56
aF10.86
aF4.34
aa(lp41
F0.0
aF0.0
aF0.0
aF44.44
aF0.0
aF0.0
aF0.0
aF44.44
aF44.44
aF0.0
aF0.0
aF0.0
aF44.44
aF0.0
aF0.0
aF0.0
aF0.0
aF0.0
aF0.0
aF0.0
aa(lp42
F0.0
aF0.0
aF0.0
aF40.0
aF20.0
aF0.0
aF0.0
aF60.0
aF40.0
aF0.0
aF0.0
aF0.0
aF40.0
aF0.0
aF0.0
aF0.0
aF0.0
aF0.0
aF0.0
aF0.0
aa(lp43
F0.0
aF0.0
aF8.75
aF31.25
aF16.25
aF0.0
aF0.0
aF60.0
aF60.0
aF0.0
aF0.0
aF26.25
aF65.0
aF0.0
aF13.75
aF18.75
aF0.0
aF31.25
aF26.25
aF13.75
aa(lp44
F0.0
aF0.0
aF8.75
aF31.25
aF16.25
aF0.0
aF0.0
aF60.0
aF60.0
aF0.0
aF0.0
aF26.25
aF65.0
aF0.0
aF13.75
aF18.75
aF0.0
aF31.25
aF26.25
aF13.75
aa(lp45
F0.0
aF0.0
aF0.0
aF44.44
aF0.0
aF0.0
aF0.0
aF44.44
aF44.44
aF0.0
aF0.0
aF0.0
aF44.44
aF0.0
aF0.0
aF0.0
aF0.0
aF33.33
aF0.0
aF0.0
aa(lp46
F0.33
aF3.09
aF3.09
aF24.72
aF2.98
aF0.0
aF0.0
aF34.87
aF35.2
aF0.0
aF0.0
aF8.6
aF37.74
aF0.44
aF1.65
aF20.97
aF0.11
aF25.38
aF8.6
aF7.06
aa(lp47
F0.0
aF0.0
aF0.0
aF35.0
aF0.0
aF0.0
aF0.0
aF40.0
aF40.0
aF0.0
aF0.0
aF0.0
aF40.0
aF0.0
aF0.0
aF20.0
aF0.0
aF20.0
aF0.0
aF0.0
aa(lp48
F0.0
aF0.0
aF0.0
aF45.71
aF27.14
aF0.0
aF0.0
aF82.85
aF82.85
aF0.0
aF0.0
aF62.85
aF91.42
aF2.85
aF25.71
aF31.42
aF0.0
aF48.57
aF62.85
aF31.42
aa(lp49
F0.0
aF0.0
aF0.0
aF100.0
aF50.0
aF0.0
aF0.0
aF100.0
aF100.0
aF0.0
aF0.0
aF50.0
aF100.0
aF0.0
aF50.0
aF50.0
aF0.0
aF50.0
aF50.0
aF0.0
aa(lp50
F0.0
aF0.0
aF0.0
aF7.69
aF0.0
aF0.0
aF0.0
aF23.07
aF23.07
aF0.0
aF0.0
aF0.0
aF23.07
aF0.0
aF0.0
aF0.0
aF0.0
aF7.69
aF0.0
aF0.0
aa(lp51
F0.0
aF0.0
aF0.0
aF14.28
aF0.0
aF0.0
aF0.0
aF28.57
aF28.57
aF0.0
aF0.0
aF0.0
aF28.57
aF0.0
aF0.0
aF0.0
aF0.0
aF0.0
aF0.0
aF0.0
aa(lp52
F0.0
aF0.0
aF0.0
aF33.33
aF0.0
aF0.0
aF0.0
aF66.66
aF33.33
aF0.0
aF0.0
aF0.0
aF33.33
aF0.0
aF0.0
aF33.33
aF0.0
aF33.33
aF0.0
aF0.0
aa(lp53
F0.0
aF0.0
aF0.0
aF14.28
aF0.0
aF0.0
aF0.0
aF42.85
aF42.85
aF0.0
aF0.0
aF0.0
aF42.85
aF0.0
aF28.57
aF0.0
aF0.0
aF0.0
aF0.0
aF14.28
aa(lp54
F0.0
aF0.0
aF0.0
aF13.51
aF0.0
aF0.0
aF0.0
aF13.51
aF13.51
aF0.0
aF0.0
aF0.0
aF13.51
aF0.0
aF0.0
aF10.81
aF0.0
aF10.81
aF0.0
aF0.0
aa(lp55
F0.0
aF0.0
aF0.0
aF58.42
aF7.36
aF0.0
aF0.0
aF86.31
aF73.15
aF0.0
aF0.0
aF54.21
aF92.1
aF0.0
aF0.0
aF42.1
aF0.0
aF49.47
aF54.21
aF12.63
aa(lp56
F0.0
aF0.0
aF0.0
aF31.81
aF4.54
aF0.0
aF0.0
aF27.27
aF27.27
aF0.0
aF0.0
aF0.0
aF27.27
aF0.0
aF0.0
aF18.18
aF0.0
aF18.18
aF0.0
aF0.0
aa(lp57
F0.0
aF0.0
aF0.0
aF40.0
aF0.0
aF0.0
aF0.0
aF40.0
aF40.0
aF0.0
aF0.0
aF0.0
aF40.0
aF0.0
aF0.0
aF20.0
aF0.0
aF20.0
aF0.0
aF0.0
aa(lp58
F0.0
aF0.0
aF0.0
aF27.27
aF4.54
aF0.0
aF0.0
aF31.81
aF31.81
aF0.0
aF0.0
aF9.09
aF31.81
aF0.0
aF0.0
aF22.72
aF0.0
aF22.72
aF9.09
aF0.0
aa(lp59
F0.0
aF0.0
aF0.0
aF14.28
aF14.28
aF0.0
aF0.0
aF42.85
aF42.85
aF0.0
aF0.0
aF0.0
aF42.85
aF0.0
aF0.0
aF0.0
aF0.0
aF0.0
aF0.0
aF28.57
aa(lp60
F0.33
aF3.09
aF3.09
aF24.61
aF2.98
aF0.0
aF0.0
aF34.87
aF35.2
aF0.0
aF0.0
aF8.6
aF37.74
aF0.44
aF1.65
aF20.86
aF0.11
aF25.38
aF8.6
aF7.06
aa(lp61
F0.0
aF0.0
aF0.0
aF39.1
aF10.38
aF0.0
aF0.0
aF93.68
aF79.42
aF0.0
aF0.0
aF53.15
aF96.94
aF0.0
aF3.25
aF25.45
aF0.0
aF31.36
aF53.15
aF18.73
aa(lp62
F0.0
aF0.0
aF0.0
aF11.11
aF0.0
aF0.0
aF0.0
aF44.44
aF44.44
aF0.0
aF0.0
aF0.0
aF44.44
aF0.0
aF0.0
aF0.0
aF0.0
aF0.0
aF0.0
aF0.0
aa(lp63
F0.0
aF0.0
aF8.75
aF31.25
aF16.25
aF0.0
aF0.0
aF60.0
aF60.0
aF0.0
aF0.0
aF26.25
aF65.0
aF0.0
aF13.75
aF18.75
aF0.0
aF31.25
aF26.25
aF13.75
aa(lp64
F0.0
aF0.0
aF0.0
aF16.66
aF0.0
aF0.0
aF0.0
aF33.33
aF33.33
aF0.0
aF0.0
aF0.0
aF33.33
aF0.0
aF0.0
aF0.0
aF0.0
aF0.0
aF0.0
aF0.0
aa(lp65
F0.0
aF0.0
aF0.0
aF36.36
aF9.09
aF0.0
aF0.0
aF45.45
aF45.45
aF0.0
aF0.0
aF0.0
aF45.45
aF0.0
aF9.09
aF0.0
aF0.0
aF0.0
aF0.0
aF0.0
aa(lp66
F0.0
aF30.76
aF0.0
aF23.07
aF0.0
aF0.0
aF0.0
aF15.38
aF23.07
aF0.0
aF0.0
aF30.76
aF46.15
aF0.0
aF30.76
aF7.69
aF0.0
aF7.69
aF30.76
aF30.76
aa(lp67
F0.0
aF0.0
aF8.75
aF31.25
aF16.25
aF0.0
aF0.0
aF60.0
aF60.0
aF0.0
aF0.0
aF26.25
aF65.0
aF0.0
aF21.25
aF18.75
aF0.0
aF31.25
aF26.25
aF13.75
aa(lp68
F0.0
aF21.42
aF0.0
aF21.42
aF0.0
aF0.0
aF0.0
aF21.42
aF28.57
aF0.0
aF0.0
aF28.57
aF42.85
aF0.0
aF21.42
aF7.14
aF0.0
aF14.28
aF28.57
aF28.57
aa(lp69
F0.0
aF0.0
aF0.0
aF46.37
aF28.98
aF0.0
aF0.0
aF84.05
aF84.05
aF0.0
aF0.0
aF63.76
aF92.75
aF2.89
aF20.28
aF31.88
aF0.0
aF49.27
aF63.76
aF31.88
aa(lp70
F0.0
aF0.0
aF0.0
aF14.28
aF0.0
aF0.0
aF0.0
aF28.57
aF28.57
aF0.0
aF0.0
aF0.0
aF28.57
aF0.0
aF0.0
aF14.28
aF0.0
aF14.28
aF0.0
aF0.0
aa(lp71
F0.33
aF3.09
aF3.09
aF24.61
aF2.98
aF0.0
aF0.0
aF34.87
aF35.2
aF0.0
aF0.0
aF8.6
aF37.74
aF0.44
aF1.65
aF20.86
aF0.11
aF25.38
aF8.6
aF7.06
aa(lp72
F0.0
aF0.0
aF0.0
aF100.0
aF0.0
aF0.0
aF0.0
aF100.0
aF100.0
aF0.0
aF0.0
aF0.0
aF100.0
aF0.0
aF0.0
aF0.0
aF0.0
aF0.0
aF0.0
aF0.0
aa(lp73
F0.0
aF0.0
aF0.0
aF10.0
aF0.0
aF0.0
aF0.0
aF10.0
aF10.0
aF0.0
aF0.0
aF0.0
aF10.0
aF0.0
aF0.0
aF8.0
aF0.0
aF8.0
aF0.0
aF0.0
aa(lp74
F0.0
aF0.0
aF0.0
aF14.28
aF0.0
aF0.0
aF0.0
aF28.57
aF28.57
aF0.0
aF0.0
aF0.0
aF28.57
aF0.0
aF0.0
aF0.0
aF0.0
aF0.0
aF0.0
aF0.0
aa(lp75
F0.0
aF0.0
aF8.75
aF31.25
aF16.25
aF0.0
aF0.0
aF60.0
aF60.0
aF0.0
aF0.0
aF26.25
aF65.0
aF0.0
aF13.75
aF18.75
aF0.0
aF31.25
aF26.25
aF13.75
aa(lp76
F0.0
aF0.0
aF0.0
aF12.5
aF12.5
aF0.0
aF0.0
aF25.0
aF25.0
aF0.0
aF0.0
aF0.0
aF25.0
aF0.0
aF0.0
aF0.0
aF0.0
aF0.0
aF0.0
aF12.5
aa(lp77
F0.0
aF0.0
aF0.0
aF33.33
aF0.0
aF0.0
aF0.0
aF33.33
aF66.66
aF0.0
aF0.0
aF0.0
aF66.66
aF0.0
aF0.0
aF0.0
aF0.0
aF0.0
aF0.0
aF33.33
aa(lp78
F0.28
aF0.0
aF0.56
aF17.63
aF3.6
aF0.0
aF0.0
aF28.15
aF21.61
aF0.0
aF0.0
aF4.17
aF28.72
aF0.09
aF0.18
aF13.74
aF0.0
aF14.31
aF4.17
aF2.46
aa(lp79
F0.0
aF0.0
aF0.0
aF55.88
aF8.82
aF0.0
aF0.0
aF86.6
aF75.16
aF0.0
aF0.0
aF61.76
aF93.79
aF0.32
aF0.32
aF38.56
aF0.0
aF42.15
aF61.76
aF13.07
aa(lp80
F0.0
aF0.0
aF8.75
aF31.25
aF16.25
aF0.0
aF0.0
aF60.0
aF60.0
aF0.0
aF0.0
aF26.25
aF65.0
aF0.0
aF13.75
aF18.75
aF0.0
aF31.25
aF26.25
aF13.75
aa(lp81
F0.0
aF0.0
aF0.0
aF13.51
aF0.0
aF0.0
aF0.0
aF13.51
aF13.51
aF0.0
aF0.0
aF0.0
aF13.51
aF0.0
aF0.0
aF10.81
aF0.0
aF10.81
aF0.0
aF0.0
aa(lp82
F0.0
aF0.0
aF0.0
aF16.66
aF16.66
aF0.0
aF0.0
aF50.0
aF50.0
aF0.0
aF0.0
aF0.0
aF50.0
aF0.0
aF0.0
aF0.0
aF0.0
aF0.0
aF0.0
aF33.33
aa(lp83
F0.17
aF1.79
aF0.8
aF19.51
aF8.81
aF0.0
aF0.0
aF35.34
aF29.22
aF0.0
aF0.0
aF8.36
aF37.58
aF0.62
aF4.4
aF13.12
aF0.0
aF14.2
aF8.36
aF11.33
aa(lp84
F0.0
aF0.0
aF0.0
aF38.46
aF0.0
aF0.0
aF0.0
aF65.38
aF65.38
aF19.23
aF3.84
aF30.76
aF65.38
aF0.0
aF0.0
aF15.38
aF0.0
aF34.61
aF30.76
aF19.23
aa(lp85
F0.0
aF0.0
aF0.0
aF14.28
aF0.0
aF0.0
aF0.0
aF21.42
aF35.71
aF0.0
aF0.0
aF0.0
aF35.71
aF0.0
aF0.0
aF0.0
aF0.0
aF0.0
aF0.0
aF14.28
aa(lp86
F0.0
aF0.0
aF0.0
aF47.36
aF0.0
aF0.0
aF0.0
aF47.36
aF57.89
aF0.0
aF0.0
aF0.0
aF57.89
aF0.0
aF10.52
aF21.05
aF0.0
aF21.05
aF0.0
aF10.52
aa(lp87
F0.0
aF0.0
aF8.75
aF31.25
aF16.25
aF0.0
aF0.0
aF60.0
aF60.0
aF0.0
aF0.0
aF26.25
aF65.0
aF0.0
aF13.75
aF18.75
aF0.0
aF31.25
aF26.25
aF13.75
aa(lp88
F0.0
aF0.0
aF0.0
aF20.0
aF0.0
aF0.0
aF0.0
aF40.0
aF40.0
aF0.0
aF0.0
aF0.0
aF40.0
aF0.0
aF0.0
aF20.0
aF0.0
aF20.0
aF0.0
aF0.0
aa(lp89
F0.28
aF0.0
aF0.56
aF17.63
aF3.6
aF0.0
aF0.0
aF28.15
aF21.61
aF0.0
aF0.0
aF4.17
aF28.72
aF0.09
aF0.18
aF13.74
aF0.0
aF14.31
aF4.17
aF2.46
aa(lp90
F0.0
aF0.0
aF0.0
aF46.37
aF28.98
aF0.0
aF0.0
aF84.05
aF84.05
aF0.0
aF0.0
aF63.76
aF92.75
aF2.89
aF20.28
aF31.88
aF0.0
aF49.27
aF63.76
aF31.88
aa(lp91
F0.0
aF0.0
aF0.0
aF23.07
aF0.0
aF0.0
aF0.0
aF23.07
aF38.46
aF0.0
aF0.0
aF0.0
aF38.46
aF0.0
aF15.38
aF0.0
aF0.0
aF0.0
aF0.0
aF15.38
aa(lp92
F0.0
aF0.0
aF0.0
aF36.36
aF9.09
aF0.0
aF0.0
aF45.45
aF45.45
aF0.0
aF0.0
aF0.0
aF45.45
aF0.0
aF9.09
aF0.0
aF0.0
aF0.0
aF0.0
aF0.0
aa(lp93
F0.0
aF0.0
aF0.0
aF42.85
aF28.57
aF0.0
aF0.0
aF42.85
aF42.85
aF0.0
aF0.0
aF0.0
aF42.85
aF0.0
aF0.0
aF0.0
aF0.0
aF0.0
aF0.0
aF0.0
aa(lp94
F0.0
aF0.0
aF0.0
aF25.0
aF12.5
aF0.0
aF0.0
aF25.0
aF25.0
aF0.0
aF0.0
aF0.0
aF25.0
aF0.0
aF0.0
aF0.0
aF0.0
aF0.0
aF0.0
aF0.0
aa(lp95
F0.0
aF0.0
aF0.0
aF43.75
aF12.5
aF0.0
aF0.0
aF50.0
aF56.25
aF0.0
aF0.0
aF0.0
aF56.25
aF0.0
aF0.0
aF0.0
aF0.0
aF0.0
aF0.0
aF6.25
aa(lp96
F0.0
aF0.0
aF0.0
aF50.0
aF0.0
aF0.0
aF0.0
aF50.0
aF50.0
aF0.0
aF0.0
aF0.0
aF50.0
aF0.0
aF0.0
aF0.0
aF0.0
aF37.5
aF0.0
aF0.0
aa(lp97
F0.0
aF12.5
aF0.0
aF25.0
aF0.0
aF0.0
aF0.0
aF18.75
aF18.75
aF0.0
aF0.0
aF25.0
aF18.75
aF0.0
aF12.5
aF12.5
aF0.0
aF12.5
aF25.0
aF12.5
aa(lp98
F0.0
aF0.0
aF0.0
aF16.66
aF0.0
aF0.0
aF0.0
aF33.33
aF33.33
aF0.0
aF0.0
aF0.0
aF33.33
aF0.0
aF0.0
aF16.66
aF0.0
aF16.66
aF0.0
aF0.0
aa(lp99
F0.0
aF0.0
aF0.0
aF20.0
aF0.0
aF0.0
aF0.0
aF20.0
aF20.0
aF0.0
aF0.0
aF0.0
aF20.0
aF0.0
aF0.0
aF0.0
aF0.0
aF0.0
aF0.0
aF0.0
aa(lp100
F0.0
aF0.0
aF8.75
aF31.25
aF16.25
aF0.0
aF0.0
aF60.0
aF60.0
aF0.0
aF0.0
aF26.25
aF65.0
aF0.0
aF13.75
aF18.75
aF0.0
aF31.25
aF26.25
aF13.75
aa(lp101
F0.0
aF0.0
aF0.0
aF27.27
aF0.0
aF0.0
aF0.0
aF36.36
aF45.45
aF0.0
aF0.0
aF27.27
aF45.45
aF0.0
aF0.0
aF18.18
aF0.0
aF18.18
aF27.27
aF9.09
aa(lp102
F0.0
aF0.0
aF0.0
aF50.0
aF0.0
aF0.0
aF0.0
aF50.0
aF50.0
aF0.0
aF0.0
aF0.0
aF50.0
aF0.0
aF0.0
aF0.0
aF0.0
aF37.5
aF0.0
aF0.0
aa(lp103
F0.0
aF0.0
aF0.0
aF12.5
aF0.0
aF0.0
aF0.0
aF25.0
aF25.0
aF0.0
aF0.0
aF0.0
aF25.0
aF0.0
aF0.0
aF0.0
aF0.0
aF0.0
aF0.0
aF12.5
aa(lp104
F0.0
aF0.0
aF0.0
aF20.0
aF6.66
aF0.0
aF0.0
aF33.33
aF33.33
aF0.0
aF0.0
aF0.0
aF33.33
aF0.0
aF0.0
aF6.66
aF0.0
aF6.66
aF0.0
aF0.0
aa(lp105
F0.0
aF0.0
aF0.0
aF20.0
aF0.0
aF0.0
aF0.0
aF40.0
aF40.0
aF0.0
aF0.0
aF0.0
aF40.0
aF0.0
aF0.0
aF0.0
aF0.0
aF0.0
aF0.0
aF0.0
aa(lp106
F0.0
aF0.0
aF0.0
aF16.66
aF0.0
aF0.0
aF0.0
aF33.33
aF33.33
aF0.0
aF0.0
aF0.0
aF33.33
aF0.0
aF0.0
aF0.0
aF0.0
aF0.0
aF0.0
aF0.0
aa(lp107
F0.0
aF0.0
aF0.0
aF50.0
aF25.0
aF0.0
aF0.0
aF50.0
aF25.0
aF0.0
aF0.0
aF0.0
aF25.0
aF0.0
aF0.0
aF25.0
aF0.0
aF25.0
aF0.0
aF0.0
aa(lp108
F0.0
aF0.0
aF0.0
aF44.92
aF28.98
aF0.0
aF0.0
aF84.05
aF84.05
aF0.0
aF0.0
aF63.76
aF92.75
aF2.89
aF26.08
aF30.43
aF0.0
aF43.47
aF63.76
aF31.88
aa(lp109
F0.0
aF0.0
aF0.0
aF46.37
aF28.98
aF0.0
aF0.0
aF84.05
aF84.05
aF0.0
aF0.0
aF63.76
aF92.75
aF2.89
aF20.28
aF31.88
aF0.0
aF49.27
aF63.76
aF31.88
aa(lp110
F0.0
aF0.0
aF0.0
aF100.0
aF50.0
aF0.0
aF0.0
aF100.0
aF100.0
aF0.0
aF0.0
aF50.0
aF100.0
aF0.0
aF50.0
aF50.0
aF0.0
aF50.0
aF50.0
aF0.0
aa(lp111
F0.0
aF0.0
aF0.0
aF14.28
aF0.0
aF0.0
aF0.0
aF21.42
aF35.71
aF0.0
aF0.0
aF0.0
aF35.71
aF0.0
aF0.0
aF0.0
aF0.0
aF0.0
aF0.0
aF14.28
aa(lp112
F0.0
aF0.0
aF0.0
aF25.0
aF0.0
aF0.0
aF0.0
aF25.0
aF25.0
aF0.0
aF0.0
aF0.0
aF25.0
aF0.0
aF0.0
aF12.5
aF0.0
aF12.5
aF0.0
aF0.0
aa(lp113
F0.0
aF0.0
aF0.0
aF16.66
aF0.0
aF0.0
aF0.0
aF50.0
aF50.0
aF0.0
aF0.0
aF16.66
aF50.0
aF0.0
aF0.0
aF0.0
aF0.0
aF33.33
aF16.66
aF0.0
aa(lp114
F0.0
aF0.0
aF0.0
aF28.57
aF0.0
aF0.0
aF0.0
aF28.57
aF28.57
aF0.0
aF0.0
aF0.0
aF28.57
aF0.0
aF0.0
aF0.0
aF0.0
aF0.0
aF0.0
aF0.0
aa(lp115
F0.0
aF0.0
aF0.0
aF100.0
aF50.0
aF0.0
aF0.0
aF100.0
aF100.0
aF0.0
aF0.0
aF50.0
aF100.0
aF0.0
aF50.0
aF50.0
aF0.0
aF50.0
aF50.0
aF0.0
aa(lp116
F0.0
aF0.0
aF8.75
aF31.25
aF16.25
aF0.0
aF0.0
aF60.0
aF60.0
aF0.0
aF0.0
aF26.25
aF65.0
aF0.0
aF13.75
aF18.75
aF0.0
aF31.25
aF26.25
aF13.75
aa(lp117
F0.0
aF0.0
aF8.33
aF33.33
aF18.05
aF0.0
aF0.0
aF55.55
aF59.72
aF0.0
aF0.0
aF19.44
aF62.5
aF0.0
aF19.44
aF20.83
aF0.0
aF29.16
aF19.44
aF11.11
aa(lp118
F0.0
aF0.0
aF0.0
aF27.27
aF9.09
aF0.0
aF0.0
aF31.81
aF31.81
aF0.0
aF0.0
aF9.09
aF31.81
aF0.0
aF0.0
aF18.18
aF0.0
aF18.18
aF9.09
aF0.0
aa(lp119
F0.0
aF0.0
aF0.0
aF11.11
aF11.11
aF0.0
aF0.0
aF33.33
aF33.33
aF0.0
aF0.0
aF0.0
aF33.33
aF0.0
aF0.0
aF22.22
aF0.0
aF22.22
aF0.0
aF0.0
aa(lp120
F0.0
aF0.0
aF0.0
aF39.1
aF10.38
aF0.0
aF0.0
aF93.68
aF79.42
aF0.0
aF0.0
aF53.15
aF96.94
aF0.0
aF3.25
aF25.45
aF0.0
aF31.36
aF53.15
aF18.73
aa(lp121
F0.0
aF0.0
aF0.0
aF16.66
aF0.0
aF0.0
aF0.0
aF33.33
aF33.33
aF0.0
aF0.0
aF0.0
aF33.33
aF0.0
aF0.0
aF16.66
aF0.0
aF16.66
aF0.0
aF0.0
aa(lp122
F0.0
aF0.0
aF0.0
aF16.66
aF0.0
aF0.0
aF0.0
aF50.0
aF50.0
aF0.0
aF0.0
aF0.0
aF50.0
aF0.0
aF0.0
aF33.33
aF0.0
aF33.33
aF0.0
aF0.0
aa(lp123
F0.0
aF0.0
aF0.0
aF100.0
aF50.0
aF0.0
aF0.0
aF100.0
aF100.0
aF0.0
aF0.0
aF50.0
aF100.0
aF0.0
aF50.0
aF50.0
aF0.0
aF50.0
aF50.0
aF0.0
aa(lp124
F0.0
aF0.0
aF8.75
aF31.25
aF16.25
aF0.0
aF0.0
aF60.0
aF60.0
aF0.0
aF0.0
aF26.25
aF65.0
aF0.0
aF13.75
aF18.75
aF0.0
aF31.25
aF26.25
aF13.75
aa(lp125
F0.0
aF0.0
aF0.0
aF28.57
aF0.0
aF0.0
aF0.0
aF28.57
aF28.57
aF0.0
aF0.0
aF0.0
aF28.57
aF0.0
aF0.0
aF0.0
aF0.0
aF0.0
aF0.0
aF0.0
aa(lp126
F0.0
aF0.0
aF0.0
aF12.5
aF0.0
aF0.0
aF0.0
aF50.0
aF50.0
aF0.0
aF0.0
aF37.5
aF50.0
aF0.0
aF0.0
aF37.5
aF0.0
aF37.5
aF37.5
aF0.0
aa(lp127
F0.0
aF0.0
aF0.0
aF33.33
aF0.0
aF0.0
aF0.0
aF16.66
aF33.33
aF0.0
aF0.0
aF0.0
aF33.33
aF0.0
aF16.66
aF0.0
aF0.0
aF0.0
aF0.0
aF16.66
aa(lp128
F0.33
aF3.09
aF3.09
aF24.72
aF2.98
aF0.0
aF0.0
aF34.98
aF35.32
aF0.0
aF0.0
aF8.6
aF37.85
aF0.44
aF1.65
aF20.97
aF0.11
aF25.38
aF8.6
aF6.84
aa(lp129
F0.0
aF0.0
aF0.0
aF28.57
aF14.28
aF0.0
aF0.0
aF28.57
aF28.57
aF0.0
aF0.0
aF0.0
aF28.57
aF0.0
aF0.0
aF0.0
aF0.0
aF0.0
aF0.0
aF0.0
aa(lp130
F0.0
aF0.0
aF0.0
aF40.0
aF0.0
aF0.0
aF0.0
aF60.0
aF60.0
aF0.0
aF0.0
aF0.0
aF60.0
aF0.0
aF0.0
aF20.0
aF0.0
aF20.0
aF0.0
aF0.0
aa(lp131
F0.0
aF0.0
aF0.0
aF40.0
aF60.0
aF0.0
aF0.0
aF100.0
aF80.0
aF0.0
aF0.0
aF40.0
aF100.0
aF0.0
aF40.0
aF40.0
aF0.0
aF40.0
aF40.0
aF40.0
aa(lp132
F0.16
aF0.16
aF1.24
aF19.68
aF10.63
aF0.0
aF0.0
aF36.46
aF31.22
aF0.0
aF0.0
aF3.15
aF39.11
aF1.32
aF4.81
aF10.96
aF1.24
aF14.45
aF3.57
aF12.7
aa(lp133
F0.0
aF0.0
aF0.0
aF10.0
aF0.0
aF0.0
aF0.0
aF30.0
aF30.0
aF0.0
aF0.0
aF0.0
aF30.0
aF0.0
aF0.0
aF0.0
aF0.0
aF0.0
aF0.0
aF0.0
aa(lp134
F0.0
aF0.0
aF8.33
aF33.33
aF18.05
aF0.0
aF0.0
aF55.55
aF59.72
aF0.0
aF0.0
aF19.44
aF62.5
aF0.0
aF9.72
aF20.83
aF0.0
aF29.16
aF19.44
aF11.11
aa(lp135
F0.0
aF0.0
aF0.0
aF52.43
aF23.17
aF0.0
aF0.0
aF73.17
aF76.82
aF0.0
aF0.0
aF54.87
aF90.24
aF4.87
aF14.63
aF30.48
aF0.0
aF41.46
aF54.87
aF20.73
aa(lp136
F0.0
aF0.0
aF0.0
aF50.0
aF0.0
aF0.0
aF0.0
aF50.0
aF50.0
aF0.0
aF0.0
aF0.0
aF50.0
aF0.0
aF0.0
aF0.0
aF0.0
aF37.5
aF0.0
aF0.0
aa(lp137
F0.1
aF0.9
aF3.65
aF16.41
aF5.56
aF0.0
aF0.0
aF32.3
aF29.5
aF0.0
aF0.0
aF7.46
aF35.38
aF1.16
aF2.17
aF10.91
aF0.26
aF13.93
aF7.57
aF8.58
aa(lp138
F0.0
aF0.0
aF0.0
aF25.0
aF0.0
aF0.0
aF0.0
aF62.5
aF62.5
aF0.0
aF0.0
aF0.0
aF62.5
aF0.0
aF0.0
aF12.5
aF0.0
aF12.5
aF0.0
aF0.0
aa(lp139
F0.0
aF0.0
aF0.0
aF25.0
aF0.0
aF0.0
aF0.0
aF25.0
aF50.0
aF0.0
aF0.0
aF0.0
aF50.0
aF0.0
aF25.0
aF0.0
aF0.0
aF0.0
aF0.0
aF25.0
aa(lp140
F0.0
aF0.0
aF0.0
aF12.5
aF0.0
aF0.0
aF0.0
aF25.0
aF25.0
aF0.0
aF0.0
aF0.0
aF25.0
aF0.0
aF0.0
aF0.0
aF0.0
aF0.0
aF0.0
aF12.5
aa(lp141
F0.0
aF0.0
aF0.0
aF46.37
aF28.98
aF0.0
aF0.0
aF84.05
aF84.05
aF0.0
aF0.0
aF63.76
aF92.75
aF2.89
aF20.28
aF31.88
aF0.0
aF49.27
aF63.76
aF31.88
aa(lp142
F0.33
aF3.09
aF3.09
aF24.61
aF2.98
aF0.0
aF0.0
aF34.87
aF35.2
aF0.0
aF0.0
aF8.6
aF37.74
aF0.44
aF1.65
aF20.86
aF0.11
aF25.38
aF8.6
aF7.06
aa(lp143
F0.0
aF0.0
aF0.0
aF40.0
aF20.0
aF0.0
aF0.0
aF40.0
aF40.0
aF0.0
aF0.0
aF0.0
aF40.0
aF0.0
aF0.0
aF0.0
aF0.0
aF0.0
aF0.0
aF0.0
aa(lp144
F0.0
aF0.0
aF0.0
aF37.5
aF25.0
aF0.0
aF0.0
aF37.5
aF37.5
aF0.0
aF0.0
aF0.0
aF37.5
aF0.0
aF0.0
aF0.0
aF0.0
aF0.0
aF0.0
aF0.0
aa(lp145
F0.0
aF0.0
aF0.0
aF57.14
aF28.57
aF0.0
aF0.0
aF57.14
aF57.14
aF0.0
aF0.0
aF14.28
aF57.14
aF0.0
aF0.0
aF14.28
aF0.0
aF14.28
aF14.28
aF0.0
aa(lp146
F0.0
aF0.0
aF0.0
aF46.37
aF28.98
aF0.0
aF0.0
aF84.05
aF84.05
aF0.0
aF0.0
aF65.21
aF92.75
aF2.89
aF24.63
aF31.88
aF0.0
aF49.27
aF65.21
aF31.88
aa(lp147
F0.0
aF0.0
aF0.0
aF12.5
aF0.0
aF0.0
aF0.0
aF25.0
aF25.0
aF0.0
aF0.0
aF0.0
aF25.0
aF0.0
aF0.0
aF25.0
aF0.0
aF25.0
aF0.0
aF0.0
aa(lp148
F0.33
aF3.09
aF3.09
aF24.61
aF2.98
aF0.0
aF0.0
aF34.87
aF35.2
aF0.0
aF0.0
aF8.6
aF37.74
aF0.44
aF1.65
aF20.86
aF0.11
aF25.38
aF8.6
aF7.06
aa(lp149
F0.11
aF0.0
aF2.8
aF3.97
aF2.61
aF0.0
aF0.0
aF20.15
aF13.27
aF0.0
aF0.0
aF0.46
aF35.02
aF0.42
aF1.23
aF1.21
aF0.7
aF9.38
aF0.46
aF29.42
aa(lp150
F0.0
aF0.0
aF0.0
aF14.28
aF14.28
aF0.0
aF0.0
aF42.85
aF42.85
aF0.0
aF0.0
aF0.0
aF42.85
aF0.0
aF0.0
aF0.0
aF0.0
aF0.0
aF0.0
aF28.57
aa.