(dp0
S'locks/test_locks_13_true-unreach-call_true-valid-memsafety_false-termination.c'
p1
I7
sS'ssh-simplified/s3_clnt_4_true-unreach-call.cil.c'
p2
I1
sS'locks/test_locks_7_true-unreach-call_true-valid-memsafety_false-termination.c'
p3
I10
sS'ldv-regression/structure_assignment.c_true-unreach-call.i'
p4
I1
sS'ssh/s3_srvr.blast.07_true-unreach-call.i.cil.c'
p5
I1
sS'ldv-regression/test_malloc-1_true-unreach-call.i'
p6
I5
sS'ldv-regression/test14_true-unreach-call.c'
p7
I1
sS'locks/test_locks_15_false-unreach-call_true-valid-memsafety_false-termination.c'
p8
I2
sS'forester-heap/dll-sorted_true-unreach-call_true-valid-memsafety.i'
p9
I1
sS'ldv-regression/alias_of_return_2.c_true-unreach-call.i'
p10
I6
sS'ldv-regression/test10_true-unreach-call.c'
p11
I10
sS'ssh-simplified/s3_clnt_2_false-unreach-call_true-termination.cil.c'
p12
I9
sS'forester-heap/sll-buckets_true-unreach-call_true-valid-memsafety.i'
p13
I1
sS'forester-heap/dll-circular_false-unreach-call_false-valid-memcleanup.i'
p14
I2
sS'ldv-regression/nested_structure_ptr.c_true-unreach-call.i'
p15
I10
sS'forester-heap/sll-circular_true-unreach-call_true-valid-memsafety.i'
p16
I1
sS'forester-heap/dll-rb-cnstr_1_false-unreach-call_false-valid-deref.i'
p17
I6
sS'list-properties/splice_false-unreach-call_false-valid-memcleanup.i'
p18
I8
sS'ldv-regression/mutex_lock_struct.c_true-unreach-call_1.i'
p19
I2
sS'ldv-regression/rule57_ebda_blast.c_false-unreach-call.i'
p20
I3
sS'ssh/s3_srvr.blast.10_false-unreach-call.i.cil.c'
p21
I1
sS'forester-heap/dll-sorted_false-unreach-call_false-valid-memcleanup.i'
p22
I6
sS'ntdrivers-simplified/floppy_simpl3_false-unreach-call_true-valid-memsafety_true-termination.cil.c'
p23
I7
sS'ldv-regression/test08_false-unreach-call.c'
p24
I1
sS'forester-heap/sll-reverse_simple_true-unreach-call_true-valid-memsafety.i'
p25
I1
sS'ssh-simplified/s3_srvr_7_true-unreach-call.cil.c'
p26
I1
sS'locks/test_locks_5_true-unreach-call_true-valid-memsafety_false-termination.c'
p27
I7
sS'ldv-regression/nested_structure_true-unreach-call.i'
p28
I9
sS'list-ext2-properties/simple_search_value_true-unreach-call.i'
p29
I1
sS'ldv-regression/test24_true-unreach-call.c'
p30
I1
sS'list-properties/list_true-unreach-call_false-valid-memtrack.i'
p31
I1
sS'ssh-simplified/s3_srvr_8_true-unreach-call.cil.c'
p32
I1
sS'list-ext-properties/list-ext_false-unreach-call_false-valid-deref.i'
p33
I9
sS'ldv-regression/volatile_alias.c_true-unreach-call.i'
p34
I5
sS'ddv-machzwd/ddv_machzwd_inb_true-unreach-call_false-valid-memtrack.i'
p35
I6
sS'ntdrivers/kbfiltr_false-unreach-call.i.cil.c'
p36
I7
sS'forester-heap/sll-01_false-unreach-call_false-valid-deref.i'
p37
I3
sS'ldv-regression/test24_false-unreach-call.c'
p38
I8
sS'ddv-machzwd/ddv_machzwd_all_false-unreach-call_true-valid-memsafety.i'
p39
I4
sS'ldv-regression/test12_false-unreach-call.c'
p40
I10
sS'ldv-regression/test09_true-unreach-call.c'
p41
I10
sS'ssh/s3_srvr.blast.13_true-unreach-call.i.cil.c'
p42
I1
sS'list-properties/list_flag_false-unreach-call_false-valid-memcleanup.i'
p43
I8
sS'forester-heap/dll-01_false-unreach-call_false-valid-memcleanup.i'
p44
I1
sS'ssh-simplified/s3_srvr_14_false-unreach-call.cil.c'
p45
I7
sS'ldv-regression/ex3_forlist.c_true-unreach-call.i'
p46
I1
sS'ssh/s3_clnt.blast.02_false-unreach-call.i.cil.c'
p47
I6
sS'ldv-regression/alt_test.c_false-unreach-call.i'
p48
I10
sS'ssh/s3_srvr.blast.13_false-unreach-call.i.cil.c'
p49
I9
sS'forester-heap/dll-simple-white-blue_true-unreach-call_false-valid-memtrack.i'
p50
I1
sS'list-properties/list_search_false-unreach-call_false-valid-memcleanup.i'
p51
I6
sS'ssh-simplified/s3_srvr_1b_true-unreach-call_false-termination.cil.c'
p52
I1
sS'ssh/s3_srvr.blast.14_true-unreach-call.i.cil.c'
p53
I1
sS'ssh/s3_srvr.blast.12_false-unreach-call.i.cil.c'
p54
I6
sS'ldv-regression/alias_of_return.c_true-unreach-call_1.i'
p55
I4
sS'ddv-machzwd/ddv_machzwd_inw_p_true-unreach-call_false-valid-memtrack.i'
p56
I6
sS'ldv-regression/test22_true-unreach-call.c'
p57
I4
sS'heap-manipulation/merge_sort_false-unreach-call_false-valid-memcleanup.i'
p58
I5
sS'ssh-simplified/s3_srvr_4_true-unreach-call.cil.c'
p59
I1
sS'ldv-regression/oomInt.c_true-unreach-call.i'
p60
I4
sS'ldv-regression/nested_structure_noptr_true-unreach-call.i'
p61
I3
sS'ssh-simplified/s3_clnt_3_false-unreach-call.cil.c'
p62
I6
sS'forester-heap/sll-queue_true-unreach-call_true-valid-memsafety.i'
p63
I1
sS'ddv-machzwd/ddv_machzwd_inl_true-unreach-call_false-valid-memtrack.i'
p64
I10
sS'ssh-simplified/s3_srvr_3_true-unreach-call.cil.c'
p65
I1
sS'forester-heap/sll-sorted_true-unreach-call_true-valid-memsafety.i'
p66
I1
sS'ssh/s3_clnt.blast.01_false-unreach-call.i.cil.c'
p67
I10
sS'heap-manipulation/bubble_sort_linux_true-unreach-call_true-valid-memsafety.i'
p68
I1
sS'ntdrivers-simplified/kbfiltr_simpl1_true-unreach-call_true-valid-memsafety_true-termination.cil.c'
p69
I10
sS'ssh/s3_srvr.blast.04_false-unreach-call.i.cil.c'
p70
I8
sS'ldv-regression/test21_false-unreach-call.c'
p71
I4
sS'ssh/s3_srvr.blast.06_false-unreach-call.i.cil.c'
p72
I7
sS'ldv-regression/stateful_check_false-unreach-call.i'
p73
I10
sS'ldv-regression/test19_true-unreach-call.c'
p74
I6
sS'ssh-simplified/s3_srvr_2_true-unreach-call.cil.c'
p75
I1
sS'forester-heap/sll-circular_false-unreach-call_false-valid-memcleanup.i'
p76
I5
sS'ssh-simplified/s3_clnt_3_true-unreach-call.cil.c'
p77
I1
sS'ldv-regression/test29_false-unreach-call.c'
p78
I10
sS'list-properties/splice_true-unreach-call_false-valid-memtrack.i'
p79
I1
sS'ssh/s3_srvr.blast.07_false-unreach-call.i.cil.c'
p80
I9
sS'ssh/s3_srvr.blast.09_false-unreach-call.i.cil.c'
p81
I6
sS'ldv-regression/alias_of_return_2.c_true-unreach-call_1.i'
p82
I4
sS'ldv-regression/test03_true-unreach-call.c'
p83
I6
sS'ssh/s3_srvr.blast.02_false-unreach-call.i.cil.c'
p84
I4
sS'locks/test_locks_9_true-unreach-call_true-valid-memsafety_false-termination.c'
p85
I1
sS'forester-heap/dll-circular_true-unreach-call_true-valid-memsafety.i'
p86
I1
sS'forester-heap/sll-01_true-unreach-call_true-valid-memsafety.i'
p87
I1
sS'ddv-machzwd/ddv_machzwd_pthread_mutex_unlock_true-unreach-call_false-valid-memtrack.i'
p88
I6
sS'ntdrivers/floppy_false-unreach-call.i.cil.c'
p89
I6
sS'heap-manipulation/dll_of_dll_false-unreach-call_false-valid-memcleanup.i'
p90
I3
sS'ssh/s3_srvr.blast.08_true-unreach-call.i.cil.c'
p91
I1
sS'ssh/s3_clnt.blast.03_false-unreach-call.i.cil.c'
p92
I7
sS'locks/test_locks_12_true-unreach-call_true-valid-memsafety_false-termination.c'
p93
I5
sS'ldv-regression/mutex_lock_int.c_false-unreach-call.i'
p94
I5
sS'ldv-regression/test_while_int.c_false-unreach-call.i'
p95
I3
sS'ldv-regression/test20_true-unreach-call.c'
p96
I2
sS'ssh/s3_srvr.blast.15_true-unreach-call.i.cil.c'
p97
I1
sS'list-properties/list_search_true-unreach-call_false-valid-memtrack.i'
p98
I8
sS'ldv-regression/test_union_cast-1_true-unreach-call.i'
p99
I8
sS'ssh-simplified/s3_clnt_2_true-unreach-call_true-termination.cil.c'
p100
I1
sS'ldv-regression/test23_false-unreach-call.c'
p101
I1
sS'heap-manipulation/merge_sort_true-unreach-call_true-valid-memsafety.i'
p102
I1
sS'ldv-regression/nested_structure_ptr_true-unreach-call.i'
p103
I10
sS'ssh/s3_srvr.blast.01_false-unreach-call.i.cil.c'
p104
I9
sS'forester-heap/sll-rb-cnstr_1_true-unreach-call_true-valid-memsafety.i'
p105
I1
sS'ssh-simplified/s3_srvr_6_false-unreach-call.cil.c'
p106
I10
sS'ldv-regression/test07_true-unreach-call.c'
p107
I3
sS'ldv-regression/test26_false-unreach-call.c'
p108
I7
sS'ldv-regression/test_address.c_true-unreach-call.i'
p109
I10
sS'ddv-machzwd/ddv_machzwd_outl_true-unreach-call_false-valid-memtrack.i'
p110
I10
sS'ntdrivers/floppy2_true-unreach-call.i.cil.c'
p111
I1
sS'ldv-regression/test30_false-unreach-call.c'
p112
I7
sS'heap-manipulation/tree_false-unreach-call_false-valid-memcleanup.i'
p113
I6
sS'ssh/s3_srvr.blast.16_false-unreach-call.i.cil.c'
p114
I10
sS'ddv-machzwd/ddv_machzwd_outw_p_true-unreach-call_false-valid-memtrack.i'
p115
I2
sS'list-properties/alternating_list_false-unreach-call_false-valid-memcleanup.i'
p116
I8
sS'ssh-simplified/s3_clnt_1_true-unreach-call.cil.c'
p117
I1
sS'ntdrivers-simplified/floppy_simpl4_false-unreach-call_true-valid-memsafety_true-termination.cil.c'
p118
I9
sS'ssh/s3_srvr.blast.06_true-unreach-call.i.cil.c'
p119
I1
sS'ldv-regression/recursive_list.c_false-unreach-call.i'
p120
I6
sS'ntdrivers-simplified/diskperf_simpl1_true-unreach-call_true-valid-memsafety_true-termination.cil.c'
p121
I8
sS'ssh/s3_srvr.blast.03_false-unreach-call.i.cil.c'
p122
I6
sS'heap-manipulation/tree_true-unreach-call.i'
p123
I1
sS'ldv-regression/test15_true-unreach-call.c'
p124
I2
sS'ssh-simplified/s3_srvr_1a_true-unreach-call_false-termination.cil.c'
p125
I1
sS'heap-manipulation/sll_to_dll_rev_true-unreach-call_true-valid-memsafety.i'
p126
I1
sS'ldv-regression/test28_true-unreach-call.c'
p127
I5
sS'list-properties/simple_built_from_end_true-unreach-call_false-valid-memtrack.i'
p128
I1
sS'ldv-regression/sizeofparameters_test.c_true-unreach-call.i'
p129
I10
sS'ldv-regression/just_assert.c_true-unreach-call.i'
p130
I1
sS'ntdrivers-simplified/cdaudio_simpl1_true-unreach-call_true-valid-memsafety_true-termination.cil.c'
p131
I4
sS'ldv-regression/test30_true-unreach-call.c'
p132
I2
sS'ldv-regression/test28_false-unreach-call.c'
p133
I10
sS'ldv-regression/rule60_list2.c_true-unreach-call.i'
p134
I10
sS'ssh-simplified/s3_srvr_11_false-unreach-call.cil.c'
p135
I10
sS'forester-heap/sll-optional_false-unreach-call_false-valid-memcleanup.i'
p136
I5
sS'ssh/s3_srvr.blast.14_false-unreach-call.i.cil.c'
p137
I6
sS'ldv-regression/mutex_lock_int.c_true-unreach-call_1.i'
p138
I6
sS'ldv-regression/test_union.c_true-unreach-call_1.i'
p139
I1
sS'ntdrivers-simplified/floppy_simpl4_true-unreach-call_true-valid-memsafety_true-termination.cil.c'
p140
I1
sS'ntdrivers-simplified/floppy_simpl3_true-unreach-call_true-valid-memsafety_true-termination.cil.c'
p141
I1
sS'forester-heap/sll-rb-sentinel_false-unreach-call_false-valid-memcleanup.i'
p142
I5
sS'heap-manipulation/bubble_sort_linux_false-unreach-call_false-valid-memcleanup.i'
p143
I6
sS'list-ext-properties/list-ext_flag_false-unreach-call_false-valid-deref.i'
p144
I1
sS'ssh/s3_srvr.blast.01_true-unreach-call.i.cil.c'
p145
I1
sS'forester-heap/dll-rb-sentinel_true-unreach-call_true-valid-memsafety.i'
p146
I1
sS'ldv-regression/test18_true-unreach-call.c'
p147
I5
sS'forester-heap/sll-sorted_false-unreach-call_false-valid-memcleanup.i'
p148
I2
sS'list-properties/simple_true-unreach-call_false-valid-memtrack.i'
p149
I1
sS'list-properties/simple_false-unreach-call_false-valid-memcleanup.i'
p150
I5
sS'ssh-simplified/s3_srvr_10_false-unreach-call.cil.c'
p151
I4
sS'ldv-regression/test16_true-unreach-call.c'
p152
I10
sS'ldv-regression/test27_true-unreach-call.c'
p153
I1
sS'ddv-machzwd/ddv_machzwd_inb_p_true-unreach-call_false-valid-memtrack.i'
p154
I10
sS'forester-heap/dll-rb-sentinel_false-unreach-call_false-valid-memtrack.i'
p155
I5
sS'heap-manipulation/tree_false-unreach-call_false-valid-deref.i'
p156
I4
sS'ldv-regression/test_cut_trace.c_true-unreach-call.i'
p157
I3
sS'forester-heap/dll-reverse_true-unreach-call_true-valid-memsafety.i'
p158
I1
sS'ldv-regression/1_3.c_false-unreach-call.i'
p159
I3
sS'ldv-regression/test06_false-unreach-call.c'
p160
I1
sS'ldv-regression/test27_false-unreach-call.c'
p161
I8
sS'ssh/s3_srvr.blast.15_false-unreach-call.i.cil.c'
p162
I1
sS'ddv-machzwd/ddv_machzwd_inl_p_true-unreach-call_false-valid-memtrack.i'
p163
I4
sS'ntdrivers-simplified/kbfiltr_simpl2_false-unreach-call_true-valid-memsafety_true-termination.cil.c'
p164
I8
sS'ldv-regression/test23_true-unreach-call.c'
p165
I1
sS'list-ext2-properties/simple_search_value_false-unreach-call.i'
p166
I1
sS'ntdrivers-simplified/kbfiltr_simpl2_true-unreach-call_true-valid-memsafety_true-termination.cil.c'
p167
I7
sS'list-ext2-properties/list_and_tree_cnstr_true-unreach-call.i'
p168
I1
sS'ldv-regression/test22_false-unreach-call.c'
p169
I1
sS'ssh/s3_clnt.blast.04_false-unreach-call.i.cil.c'
p170
I8
sS'ssh-simplified/s3_srvr_6_true-unreach-call.cil.c'
p171
I1
sS'ldv-regression/test_overflow.c_true-unreach-call.i'
p172
I5
sS'list-ext2-properties/list_and_tree_cnstr_false-unreach-call.i'
p173
I10
sS'ldv-regression/test25_false-unreach-call.c'
p174
I1
sS'locks/test_locks_11_true-unreach-call_true-valid-memsafety_false-termination.c'
p175
I10
sS'forester-heap/sll-token_true-unreach-call_true-valid-memsafety.i'
p176
I1
sS'heap-manipulation/dancing_true-unreach-call_false-valid-memtrack.i'
p177
I1
sS'ldv-regression/callfpointer.c_false-unreach-call.i'
p178
I7
sS'ldv-regression/test04_true-unreach-call.c'
p179
I1
sS'locks/test_locks_10_true-unreach-call_true-valid-memsafety_false-termination.c'
p180
I6
sS'ldv-regression/test_union_cast.c_true-unreach-call_1.i'
p181
I2
sS'locks/test_locks_14_false-unreach-call_true-valid-memsafety_false-termination.c'
p182
I8
sS'ldv-regression/test_union_cast-2_true-unreach-call.i'
p183
I5
sS'locks/test_locks_15_true-unreach-call_true-valid-memsafety_false-termination.c'
p184
I6
sS'ldv-regression/test25_true-unreach-call.c'
p185
I1
sS'ldv-regression/nested_structure.c_true-unreach-call.i'
p186
I1
sS'ntdrivers/parport_false-unreach-call.i.cil.c'
p187
I6
sS'ldv-regression/test11_true-unreach-call.c'
p188
I10
sS'ldv-regression/nested_structure_noptr.c_true-unreach-call.i'
p189
I6
sS'ldv-regression/test17_true-unreach-call.c'
p190
I6
sS'heap-manipulation/sll_to_dll_rev_false-unreach-call_false-valid-memcleanup.i'
p191
I4
sS'forester-heap/sll-simple-white-blue_true-unreach-call_false-valid-memtrack.i'
p192
I2
sS'ldv-regression/test26_true-unreach-call.c'
p193
I2
sS'forester-heap/dll-optional_true-unreach-call_true-valid-memsafety.i'
p194
I1
sS'list-properties/list_false-unreach-call_false-valid-memcleanup.i'
p195
I10
sS'ldv-regression/test_while_int.c_false-unreach-call_1.i'
p196
I6
sS'forester-heap/dll-simple-white-blue_false-unreach-call_false-valid-memcleanup.i'
p197
I4
sS'ntdrivers/parport_true-unreach-call.i.cil.c'
p198
I2
sS'ddv-machzwd/ddv_machzwd_outb_false-unreach-call_true-valid-memsafety.i'
p199
I10
sS'ssh-simplified/s3_srvr_1_true-unreach-call.cil.c'
p200
I1
sS'forester-heap/dll-queue_false-unreach-call_false-valid-memcleanup.i'
p201
I6
sS'ssh-simplified/s3_clnt_1_false-unreach-call.cil.c'
p202
I6
sS'ldv-regression/volatile_alias.c_true-unreach-call_1.i'
p203
I5
sS'ssh-simplified/s3_srvr_12_false-unreach-call.cil.c'
p204
I8
sS'ddv-machzwd/ddv_machzwd_inw_false-unreach-call_true-valid-memsafety.i'
p205
I5
sS'ssh/s3_clnt.blast.03_true-unreach-call.i.cil.c'
p206
I1
sS'ntdrivers/floppy_true-unreach-call_true-valid-memsafety.i.cil.c'
p207
I1
sS'ntdrivers/diskperf_false-unreach-call.i.cil.c'
p208
I9
sS'list-properties/alternating_list_true-unreach-call_true-valid-memsafety.i'
p209
I1
sS'forester-heap/dll-01_true-unreach-call_true-valid-memsafety.i'
p210
I1
sS'list-properties/list_flag_true-unreach-call_false-valid-memtrack.i'
p211
I2
sS'ssh/s3_srvr.blast.11_false-unreach-call.i.cil.c'
p212
I7
sS'ssh/s3_srvr.blast.11_true-unreach-call.i.cil.c'
p213
I1
sS'ldv-regression/mutex_lock_struct.c_false-unreach-call.i'
p214
I7
sS'forester-heap/dll-rb-cnstr_1_true-unreach-call_true-valid-memsafety.i'
p215
I1
sS'ssh-simplified/s3_srvr_13_false-unreach-call.cil.c'
p216
I5
sS'ldv-regression/test05_true-unreach-call.c'
p217
I4
sS'forester-heap/sll-simple-white-blue_false-unreach-call_false-valid-memcleanup.i'
p218
I1
sS'forester-heap/dll-queue_true-unreach-call_true-valid-memsafety.i'
p219
I2
sS'ldv-regression/rule60_list2.c_false-unreach-call_1.i'
p220
I1
sS'ldv-regression/rule60_list.c_true-unreach-call.i'
p221
I6
sS'ssh/s3_srvr.blast.09_true-unreach-call.i.cil.c'
p222
I1
sS'list-ext-properties/simple-ext_false-unreach-call_false-valid-memcleanup.i'
p223
I10
sS'ldv-regression/test02_false-unreach-call.c'
p224
I10
sS'heap-manipulation/dll_of_dll_true-unreach-call_true-valid-memsafety.i'
p225
I1
sS'forester-heap/sll-buckets_false-unreach-call_false-valid-memcleanup.i'
p226
I3
sS'ldv-regression/test13_true-unreach-call.c'
p227
I3
sS'ssh/s3_clnt.blast.02_true-unreach-call.i.cil.c'
p228
I1
sS'ldv-regression/rule57_ebda_blast.c_true-unreach-call_1.i'
p229
I1
sS'forester-heap/sll-optional_true-unreach-call_true-valid-memsafety.i'
p230
I1
sS'locks/test_locks_14_true-unreach-call_true-valid-memsafety_false-termination.c'
p231
I4
sS'ntdrivers/diskperf_true-unreach-call.i.cil.c'
p232
I5
sS'list-ext2-properties/simple_and_skiplist_2lvl_false-unreach-call.i'
p233
I4
sS'forester-heap/dll-token_false-unreach-call_false-valid-memcleanup.i'
p234
I10
sS'forester-heap/sll-rb-cnstr_1_false-unreach-call_false-valid-deref.i'
p235
I2
sS'ssh/s3_clnt.blast.01_true-unreach-call.i.cil.c'
p236
I1
sS'forester-heap/sll-token_false-unreach-call_false-valid-memcleanup.i'
p237
I10
sS'forester-heap/dll-token_true-unreach-call_true-valid-memsafety.i'
p238
I1
sS'ddv-machzwd/ddv_machzwd_outb_p_true-unreach-call_false-valid-memtrack.i'
p239
I10
sS'locks/test_locks_8_true-unreach-call_true-valid-memsafety_false-termination.c'
p240
I4
sS'ntdrivers/cdaudio_true-unreach-call.i.cil.c'
p241
I1
sS'ntdrivers-simplified/cdaudio_simpl1_false-unreach-call_true-valid-memsafety_true-termination.cil.c'
p242
I7
sS'ntdrivers/cdaudio_false-unreach-call.i.cil.c'
p243
I1
sS'list-ext2-properties/simple_and_skiplist_2lvl_true-unreach-call.i'
p244
I1
sS'ldv-regression/test_union_cast.c_true-unreach-call.i'
p245
I3
sS'forester-heap/sll-rb-sentinel_true-unreach-call_true-valid-memsafety.i'
p246
I1
sS'ldv-regression/test29_true-unreach-call.c'
p247
I2
sS'ldv-regression/test01_true-unreach-call.c'
p248
I10
sS'ldv-regression/test_malloc-2_true-unreach-call.i'
p249
I8
sS'ssh/s3_srvr.blast.16_true-unreach-call.i.cil.c'
p250
I1
sS'ldv-regression/test21_true-unreach-call.c'
p251
I6
sS'ldv-regression/alias_of_return.c_true-unreach-call.i'
p252
I3
sS'ddv-machzwd/ddv_machzwd_outl_p_true-unreach-call_false-valid-memtrack.i'
p253
I4
sS'ssh-simplified/s3_srvr_2_false-unreach-call.cil.c'
p254
I6
sS'ssh/s3_srvr.blast.08_false-unreach-call.i.cil.c'
p255
I1
sS'ssh/s3_srvr.blast.12_true-unreach-call.i.cil.c'
p256
I1
sS'ldv-regression/test_union.c_true-unreach-call.i'
p257
I4
sS'ssh/s3_clnt.blast.04_true-unreach-call.i.cil.c'
p258
I1
sS'forester-heap/dll-optional_false-unreach-call_false-valid-memcleanup.i'
p259
I6
sS'ssh-simplified/s3_srvr_1_false-unreach-call.cil.c'
p260
I6
sS'ssh-simplified/s3_clnt_4_false-unreach-call.cil.c'
p261
I9
sS'ssh/s3_srvr.blast.02_true-unreach-call.i.cil.c'
p262
I1
sS'locks/test_locks_6_true-unreach-call_true-valid-memsafety_false-termination.c'
p263
I7
sS'ldv-regression/fo_test.c_false-unreach-call.i'
p264
I6
sS'ssh/s3_srvr.blast.10_true-unreach-call.i.cil.c'
p265
I1
sS'forester-heap/sll-queue_false-unreach-call_false-valid-memcleanup.i'
p266
I4
sS'ldv-regression/oomInt.c_true-unreach-call_1.i'
p267
I1
s.