(dp0
S'../../c/locks/test_locks_14_true-unreach-call_true-valid-memsafety_false-termination.c'
p1
I4
sS'../../c/ssh-simplified/s3_clnt_3_false-unreach-call.cil.c'
p2
I6
sS'../../c/ddv-machzwd/ddv_machzwd_inw_false-unreach-call_true-valid-memsafety.i'
p3
I5
sS'../../c/locks/test_locks_11_true-unreach-call_true-valid-memsafety_false-termination.c'
p4
I10
sS'../../c/ssh-simplified/s3_srvr_6_false-unreach-call.cil.c'
p5
I10
sS'../../c/list-properties/splice_true-unreach-call_false-valid-memtrack.i'
p6
I1
sS'../../c/list-ext2-properties/simple_and_skiplist_2lvl_true-unreach-call.i'
p7
I1
sS'../../c/ssh/s3_clnt.blast.01_true-unreach-call.i.cil.c'
p8
I1
sS'../../c/ddv-machzwd/ddv_machzwd_outl_p_true-unreach-call_false-valid-memtrack.i'
p9
I4
sS'../../c/ldv-regression/test22_false-unreach-call.c'
p10
I1
sS'../../c/ldv-regression/nested_structure_noptr.c_true-unreach-call.i'
p11
I6
sS'../../c/ssh-simplified/s3_srvr_1_false-unreach-call.cil.c'
p12
I6
sS'../../c/ntdrivers-simplified/floppy_simpl3_false-unreach-call_true-valid-memsafety_true-termination.cil.c'
p13
I7
sS'../../c/ldv-regression/test01_true-unreach-call.c'
p14
I10
sS'../../c/forester-heap/dll-token_true-unreach-call_true-valid-memsafety.i'
p15
I1
sS'../../c/ddv-machzwd/ddv_machzwd_inb_true-unreach-call_false-valid-memtrack.i'
p16
I6
sS'../../c/ssh/s3_srvr.blast.11_false-unreach-call.i.cil.c'
p17
I7
sS'../../c/forester-heap/sll-sorted_true-unreach-call_true-valid-memsafety.i'
p18
I1
sS'../../c/ssh-simplified/s3_clnt_4_true-unreach-call.cil.c'
p19
I1
sS'../../c/ldv-regression/rule60_list2.c_true-unreach-call.i'
p20
I10
sS'../../c/forester-heap/sll-sorted_false-unreach-call_false-valid-memcleanup.i'
p21
I2
sS'../../c/ssh/s3_clnt.blast.02_true-unreach-call.i.cil.c'
p22
I1
sS'../../c/ldv-regression/test26_true-unreach-call.c'
p23
I2
sS'../../c/ssh/s3_srvr.blast.03_false-unreach-call.i.cil.c'
p24
I6
sS'../../c/ssh/s3_srvr.blast.02_false-unreach-call.i.cil.c'
p25
I4
sS'../../c/ldv-regression/mutex_lock_int.c_true-unreach-call_1.i'
p26
I6
sS'../../c/heap-manipulation/merge_sort_true-unreach-call_true-valid-memsafety.i'
p27
I1
sS'../../c/heap-manipulation/merge_sort_false-unreach-call_false-valid-memcleanup.i'
p28
I5
sS'../../c/ldv-regression/test28_true-unreach-call.c'
p29
I5
sS'../../c/ddv-machzwd/ddv_machzwd_outw_p_true-unreach-call_false-valid-memtrack.i'
p30
I2
sS'../../c/forester-heap/sll-optional_true-unreach-call_true-valid-memsafety.i'
p31
I1
sS'../../c/locks/test_locks_9_true-unreach-call_true-valid-memsafety_false-termination.c'
p32
I1
sS'../../c/ntdrivers-simplified/floppy_simpl4_true-unreach-call_true-valid-memsafety_true-termination.cil.c'
p33
I1
sS'../../c/locks/test_locks_10_true-unreach-call_true-valid-memsafety_false-termination.c'
p34
I6
sS'../../c/ssh-simplified/s3_clnt_4_false-unreach-call.cil.c'
p35
I9
sS'../../c/ssh/s3_srvr.blast.06_true-unreach-call.i.cil.c'
p36
I1
sS'../../c/ntdrivers-simplified/kbfiltr_simpl1_true-unreach-call_true-valid-memsafety_true-termination.cil.c'
p37
I10
sS'../../c/list-properties/list_true-unreach-call_false-valid-memtrack.i'
p38
I1
sS'../../c/heap-manipulation/bubble_sort_linux_false-unreach-call_false-valid-memcleanup.i'
p39
I6
sS'../../c/forester-heap/sll-token_false-unreach-call_false-valid-memcleanup.i'
p40
I10
sS'../../c/ldv-regression/test_union_cast-1_true-unreach-call.i'
p41
I8
sS'../../c/ssh/s3_srvr.blast.07_true-unreach-call.i.cil.c'
p42
I1
sS'../../c/ssh/s3_srvr.blast.09_true-unreach-call.i.cil.c'
p43
I1
sS'../../c/forester-heap/dll-rb-sentinel_false-unreach-call_false-valid-memtrack.i'
p44
I5
sS'../../c/ddv-machzwd/ddv_machzwd_outb_false-unreach-call_true-valid-memsafety.i'
p45
I10
sS'../../c/list-ext2-properties/list_and_tree_cnstr_false-unreach-call.i'
p46
I10
sS'../../c/ssh-simplified/s3_srvr_1_true-unreach-call.cil.c'
p47
I1
sS'../../c/ldv-regression/test_overflow.c_true-unreach-call.i'
p48
I5
sS'../../c/ldv-regression/test30_true-unreach-call.c'
p49
I2
sS'../../c/ldv-regression/nested_structure_ptr.c_true-unreach-call.i'
p50
I10
sS'../../c/ldv-regression/test_union_cast.c_true-unreach-call.i'
p51
I3
sS'../../c/forester-heap/dll-circular_true-unreach-call_true-valid-memsafety.i'
p52
I1
sS'../../c/heap-manipulation/sll_to_dll_rev_true-unreach-call_true-valid-memsafety.i'
p53
I1
sS'../../c/ntdrivers-simplified/kbfiltr_simpl2_true-unreach-call_true-valid-memsafety_true-termination.cil.c'
p54
I7
sS'../../c/ldv-regression/test_while_int.c_false-unreach-call_1.i'
p55
I6
sS'../../c/list-properties/alternating_list_true-unreach-call_true-valid-memsafety.i'
p56
I1
sS'../../c/ssh-simplified/s3_srvr_2_false-unreach-call.cil.c'
p57
I6
sS'../../c/forester-heap/dll-queue_true-unreach-call_true-valid-memsafety.i'
p58
I2
sS'../../c/ntdrivers/cdaudio_false-unreach-call.i.cil.c'
p59
I1
sS'../../c/ntdrivers-simplified/cdaudio_simpl1_true-unreach-call_true-valid-memsafety_true-termination.cil.c'
p60
I4
sS'../../c/forester-heap/sll-reverse_simple_true-unreach-call_true-valid-memsafety.i'
p61
I1
sS'../../c/ssh/s3_srvr.blast.14_true-unreach-call.i.cil.c'
p62
I1
sS'../../c/forester-heap/sll-optional_false-unreach-call_false-valid-memcleanup.i'
p63
I5
sS'../../c/ldv-regression/callfpointer.c_false-unreach-call.i'
p64
I7
sS'../../c/ldv-regression/test24_false-unreach-call.c'
p65
I8
sS'../../c/heap-manipulation/tree_false-unreach-call_false-valid-deref.i'
p66
I4
sS'../../c/ddv-machzwd/ddv_machzwd_inl_p_true-unreach-call_false-valid-memtrack.i'
p67
I4
sS'../../c/ldv-regression/mutex_lock_int.c_false-unreach-call.i'
p68
I5
sS'../../c/ldv-regression/test09_true-unreach-call.c'
p69
I10
sS'../../c/ldv-regression/just_assert.c_true-unreach-call.i'
p70
I1
sS'../../c/heap-manipulation/dll_of_dll_false-unreach-call_false-valid-memcleanup.i'
p71
I3
sS'../../c/forester-heap/dll-optional_false-unreach-call_false-valid-memcleanup.i'
p72
I6
sS'../../c/ldv-regression/1_3.c_false-unreach-call.i'
p73
I3
sS'../../c/ldv-regression/test08_false-unreach-call.c'
p74
I1
sS'../../c/ldv-regression/volatile_alias.c_true-unreach-call.i'
p75
I5
sS'../../c/ntdrivers/diskperf_false-unreach-call.i.cil.c'
p76
I9
sS'../../c/ntdrivers-simplified/diskperf_simpl1_true-unreach-call_true-valid-memsafety_true-termination.cil.c'
p77
I8
sS'../../c/ssh/s3_srvr.blast.08_false-unreach-call.i.cil.c'
p78
I1
sS'../../c/heap-manipulation/sll_to_dll_rev_false-unreach-call_false-valid-memcleanup.i'
p79
I4
sS'../../c/forester-heap/sll-queue_false-unreach-call_false-valid-memcleanup.i'
p80
I4
sS'../../c/ddv-machzwd/ddv_machzwd_inw_p_true-unreach-call_false-valid-memtrack.i'
p81
I6
sS'../../c/ldv-regression/fo_test.c_false-unreach-call.i'
p82
I6
sS'../../c/ldv-regression/test05_true-unreach-call.c'
p83
I4
sS'../../c/list-ext2-properties/simple_search_value_true-unreach-call.i'
p84
I1
sS'../../c/ldv-regression/rule57_ebda_blast.c_false-unreach-call.i'
p85
I3
sS'../../c/ldv-regression/structure_assignment.c_true-unreach-call.i'
p86
I1
sS'../../c/ntdrivers/diskperf_true-unreach-call.i.cil.c'
p87
I5
sS'../../c/ssh-simplified/s3_srvr_6_true-unreach-call.cil.c'
p88
I1
sS'../../c/list-ext-properties/simple-ext_false-unreach-call_false-valid-memcleanup.i'
p89
I10
sS'../../c/list-properties/alternating_list_false-unreach-call_false-valid-memcleanup.i'
p90
I8
sS'../../c/ntdrivers/floppy_true-unreach-call_true-valid-memsafety.i.cil.c'
p91
I1
sS'../../c/ldv-regression/nested_structure_ptr_true-unreach-call.i'
p92
I10
sS'../../c/ldv-regression/stateful_check_false-unreach-call.i'
p93
I10
sS'../../c/forester-heap/dll-01_false-unreach-call_false-valid-memcleanup.i'
p94
I1
sS'../../c/ssh-simplified/s3_srvr_8_true-unreach-call.cil.c'
p95
I1
sS'../../c/ldv-regression/test23_false-unreach-call.c'
p96
I1
sS'../../c/ldv-regression/alias_of_return_2.c_true-unreach-call.i'
p97
I6
sS'../../c/ldv-regression/rule60_list.c_true-unreach-call.i'
p98
I6
sS'../../c/ssh/s3_srvr.blast.13_true-unreach-call.i.cil.c'
p99
I1
sS'../../c/ldv-regression/test10_true-unreach-call.c'
p100
I10
sS'../../c/ldv-regression/test_union.c_true-unreach-call.i'
p101
I4
sS'../../c/list-properties/list_search_false-unreach-call_false-valid-memcleanup.i'
p102
I6
sS'../../c/forester-heap/dll-rb-cnstr_1_false-unreach-call_false-valid-deref.i'
p103
I6
sS'../../c/forester-heap/dll-token_false-unreach-call_false-valid-memcleanup.i'
p104
I10
sS'../../c/ldv-regression/test_union_cast-2_true-unreach-call.i'
p105
I5
sS'../../c/ssh-simplified/s3_srvr_12_false-unreach-call.cil.c'
p106
I8
sS'../../c/ssh-simplified/s3_srvr_4_true-unreach-call.cil.c'
p107
I1
sS'../../c/locks/test_locks_12_true-unreach-call_true-valid-memsafety_false-termination.c'
p108
I5
sS'../../c/ldv-regression/test06_false-unreach-call.c'
p109
I1
sS'../../c/ldv-regression/test18_true-unreach-call.c'
p110
I5
sS'../../c/ldv-regression/test15_true-unreach-call.c'
p111
I2
sS'../../c/forester-heap/dll-simple-white-blue_true-unreach-call_false-valid-memtrack.i'
p112
I1
sS'../../c/locks/test_locks_5_true-unreach-call_true-valid-memsafety_false-termination.c'
p113
I7
sS'../../c/forester-heap/dll-simple-white-blue_false-unreach-call_false-valid-memcleanup.i'
p114
I4
sS'../../c/ssh/s3_srvr.blast.06_false-unreach-call.i.cil.c'
p115
I7
sS'../../c/ssh/s3_clnt.blast.01_false-unreach-call.i.cil.c'
p116
I10
sS'../../c/heap-manipulation/tree_true-unreach-call.i'
p117
I1
sS'../../c/heap-manipulation/bubble_sort_linux_true-unreach-call_true-valid-memsafety.i'
p118
I1
sS'../../c/ntdrivers-simplified/cdaudio_simpl1_false-unreach-call_true-valid-memsafety_true-termination.cil.c'
p119
I7
sS'../../c/ldv-regression/alias_of_return_2.c_true-unreach-call_1.i'
p120
I4
sS'../../c/ldv-regression/test12_false-unreach-call.c'
p121
I10
sS'../../c/locks/test_locks_7_true-unreach-call_true-valid-memsafety_false-termination.c'
p122
I10
sS'../../c/ssh/s3_srvr.blast.10_false-unreach-call.i.cil.c'
p123
I1
sS'../../c/ssh-simplified/s3_srvr_1a_true-unreach-call_false-termination.cil.c'
p124
I1
sS'../../c/ldv-regression/test11_true-unreach-call.c'
p125
I10
sS'../../c/ldv-regression/test_while_int.c_false-unreach-call.i'
p126
I3
sS'../../c/forester-heap/sll-01_true-unreach-call_true-valid-memsafety.i'
p127
I1
sS'../../c/ddv-machzwd/ddv_machzwd_pthread_mutex_unlock_true-unreach-call_false-valid-memtrack.i'
p128
I6
sS'../../c/ldv-regression/test03_true-unreach-call.c'
p129
I6
sS'../../c/ldv-regression/test02_false-unreach-call.c'
p130
I10
sS'../../c/ssh-simplified/s3_srvr_1b_true-unreach-call_false-termination.cil.c'
p131
I1
sS'../../c/ntdrivers/floppy_false-unreach-call.i.cil.c'
p132
I6
sS'../../c/forester-heap/sll-buckets_false-unreach-call_false-valid-memcleanup.i'
p133
I3
sS'../../c/ssh/s3_clnt.blast.03_true-unreach-call.i.cil.c'
p134
I1
sS'../../c/ssh-simplified/s3_clnt_3_true-unreach-call.cil.c'
p135
I1
sS'../../c/list-properties/list_flag_false-unreach-call_false-valid-memcleanup.i'
p136
I8
sS'../../c/forester-heap/dll-rb-cnstr_1_true-unreach-call_true-valid-memsafety.i'
p137
I1
sS'../../c/ntdrivers/parport_true-unreach-call.i.cil.c'
p138
I2
sS'../../c/locks/test_locks_14_false-unreach-call_true-valid-memsafety_false-termination.c'
p139
I8
sS'../../c/heap-manipulation/dancing_true-unreach-call_false-valid-memtrack.i'
p140
I1
sS'../../c/ldv-regression/test07_true-unreach-call.c'
p141
I3
sS'../../c/ssh-simplified/s3_srvr_7_true-unreach-call.cil.c'
p142
I1
sS'../../c/list-properties/list_false-unreach-call_false-valid-memcleanup.i'
p143
I10
sS'../../c/ldv-regression/nested_structure_noptr_true-unreach-call.i'
p144
I3
sS'../../c/forester-heap/dll-sorted_true-unreach-call_true-valid-memsafety.i'
p145
I1
sS'../../c/forester-heap/dll-circular_false-unreach-call_false-valid-memcleanup.i'
p146
I2
sS'../../c/ldv-regression/test29_false-unreach-call.c'
p147
I10
sS'../../c/ldv-regression/test21_true-unreach-call.c'
p148
I6
sS'../../c/ssh-simplified/s3_srvr_13_false-unreach-call.cil.c'
p149
I5
sS'../../c/ldv-regression/test_address.c_true-unreach-call.i'
p150
I10
sS'../../c/ddv-machzwd/ddv_machzwd_inb_p_true-unreach-call_false-valid-memtrack.i'
p151
I10
sS'../../c/ntdrivers/floppy2_true-unreach-call.i.cil.c'
p152
I1
sS'../../c/forester-heap/dll-queue_false-unreach-call_false-valid-memcleanup.i'
p153
I6
sS'../../c/ssh-simplified/s3_clnt_1_true-unreach-call.cil.c'
p154
I1
sS'../../c/ddv-machzwd/ddv_machzwd_outb_p_true-unreach-call_false-valid-memtrack.i'
p155
I10
sS'../../c/ssh-simplified/s3_srvr_14_false-unreach-call.cil.c'
p156
I7
sS'../../c/ldv-regression/volatile_alias.c_true-unreach-call_1.i'
p157
I5
sS'../../c/ssh/s3_srvr.blast.08_true-unreach-call.i.cil.c'
p158
I1
sS'../../c/ssh/s3_srvr.blast.16_true-unreach-call.i.cil.c'
p159
I1
sS'../../c/ldv-regression/test19_true-unreach-call.c'
p160
I6
sS'../../c/ldv-regression/test23_true-unreach-call.c'
p161
I1
sS'../../c/forester-heap/sll-token_true-unreach-call_true-valid-memsafety.i'
p162
I1
sS'../../c/locks/test_locks_8_true-unreach-call_true-valid-memsafety_false-termination.c'
p163
I4
sS'../../c/ldv-regression/rule60_list2.c_false-unreach-call_1.i'
p164
I1
sS'../../c/ldv-regression/oomInt.c_true-unreach-call.i'
p165
I4
sS'../../c/ssh/s3_srvr.blast.12_true-unreach-call.i.cil.c'
p166
I1
sS'../../c/ntdrivers/cdaudio_true-unreach-call.i.cil.c'
p167
I1
sS'../../c/ssh/s3_clnt.blast.04_true-unreach-call.i.cil.c'
p168
I1
sS'../../c/ntdrivers-simplified/kbfiltr_simpl2_false-unreach-call_true-valid-memsafety_true-termination.cil.c'
p169
I8
sS'../../c/forester-heap/sll-queue_true-unreach-call_true-valid-memsafety.i'
p170
I1
sS'../../c/ssh-simplified/s3_srvr_3_true-unreach-call.cil.c'
p171
I1
sS'../../c/ldv-regression/alt_test.c_false-unreach-call.i'
p172
I10
sS'../../c/ldv-regression/test_malloc-1_true-unreach-call.i'
p173
I5
sS'../../c/forester-heap/sll-circular_false-unreach-call_false-valid-memcleanup.i'
p174
I5
sS'../../c/list-ext-properties/list-ext_flag_false-unreach-call_false-valid-deref.i'
p175
I1
sS'../../c/forester-heap/sll-simple-white-blue_false-unreach-call_false-valid-memcleanup.i'
p176
I1
sS'../../c/ldv-regression/test_union_cast.c_true-unreach-call_1.i'
p177
I2
sS'../../c/ssh/s3_srvr.blast.02_true-unreach-call.i.cil.c'
p178
I1
sS'../../c/list-properties/simple_built_from_end_true-unreach-call_false-valid-memtrack.i'
p179
I1
sS'../../c/forester-heap/dll-optional_true-unreach-call_true-valid-memsafety.i'
p180
I1
sS'../../c/ldv-regression/rule57_ebda_blast.c_true-unreach-call_1.i'
p181
I1
sS'../../c/list-properties/simple_true-unreach-call_false-valid-memtrack.i'
p182
I1
sS'../../c/ldv-regression/test27_false-unreach-call.c'
p183
I8
sS'../../c/ldv-regression/test17_true-unreach-call.c'
p184
I6
sS'../../c/list-properties/splice_false-unreach-call_false-valid-memcleanup.i'
p185
I8
sS'../../c/ddv-machzwd/ddv_machzwd_outl_true-unreach-call_false-valid-memtrack.i'
p186
I10
sS'../../c/locks/test_locks_13_true-unreach-call_true-valid-memsafety_false-termination.c'
p187
I7
sS'../../c/ssh/s3_srvr.blast.09_false-unreach-call.i.cil.c'
p188
I6
sS'../../c/ssh/s3_srvr.blast.14_false-unreach-call.i.cil.c'
p189
I6
sS'../../c/ssh/s3_srvr.blast.15_false-unreach-call.i.cil.c'
p190
I1
sS'../../c/forester-heap/sll-rb-sentinel_true-unreach-call_true-valid-memsafety.i'
p191
I1
sS'../../c/ssh/s3_srvr.blast.07_false-unreach-call.i.cil.c'
p192
I9
sS'../../c/forester-heap/dll-rb-sentinel_true-unreach-call_true-valid-memsafety.i'
p193
I1
sS'../../c/ldv-regression/test22_true-unreach-call.c'
p194
I4
sS'../../c/ldv-regression/test26_false-unreach-call.c'
p195
I7
sS'../../c/locks/test_locks_15_true-unreach-call_true-valid-memsafety_false-termination.c'
p196
I6
sS'../../c/ldv-regression/test20_true-unreach-call.c'
p197
I2
sS'../../c/ldv-regression/nested_structure_true-unreach-call.i'
p198
I9
sS'../../c/ssh-simplified/s3_clnt_2_false-unreach-call_true-termination.cil.c'
p199
I9
sS'../../c/ldv-regression/test25_false-unreach-call.c'
p200
I1
sS'../../c/list-properties/list_flag_true-unreach-call_false-valid-memtrack.i'
p201
I2
sS'../../c/ldv-regression/test27_true-unreach-call.c'
p202
I1
sS'../../c/ssh/s3_srvr.blast.11_true-unreach-call.i.cil.c'
p203
I1
sS'../../c/ntdrivers/parport_false-unreach-call.i.cil.c'
p204
I6
sS'../../c/ldv-regression/alias_of_return.c_true-unreach-call.i'
p205
I3
sS'../../c/ssh-simplified/s3_srvr_11_false-unreach-call.cil.c'
p206
I10
sS'../../c/forester-heap/dll-reverse_true-unreach-call_true-valid-memsafety.i'
p207
I1
sS'../../c/heap-manipulation/dll_of_dll_true-unreach-call_true-valid-memsafety.i'
p208
I1
sS'../../c/list-ext2-properties/simple_search_value_false-unreach-call.i'
p209
I1
sS'../../c/locks/test_locks_6_true-unreach-call_true-valid-memsafety_false-termination.c'
p210
I7
sS'../../c/ldv-regression/recursive_list.c_false-unreach-call.i'
p211
I6
sS'../../c/ssh/s3_srvr.blast.10_true-unreach-call.i.cil.c'
p212
I1
sS'../../c/ldv-regression/nested_structure.c_true-unreach-call.i'
p213
I1
sS'../../c/ssh/s3_srvr.blast.15_true-unreach-call.i.cil.c'
p214
I1
sS'../../c/ddv-machzwd/ddv_machzwd_inl_true-unreach-call_false-valid-memtrack.i'
p215
I10
sS'../../c/forester-heap/dll-sorted_false-unreach-call_false-valid-memcleanup.i'
p216
I6
sS'../../c/ldv-regression/mutex_lock_struct.c_true-unreach-call_1.i'
p217
I2
sS'../../c/ssh/s3_clnt.blast.02_false-unreach-call.i.cil.c'
p218
I6
sS'../../c/ssh-simplified/s3_srvr_2_true-unreach-call.cil.c'
p219
I1
sS'../../c/ssh/s3_srvr.blast.04_false-unreach-call.i.cil.c'
p220
I8
sS'../../c/ldv-regression/test_union.c_true-unreach-call_1.i'
p221
I1
sS'../../c/list-ext-properties/list-ext_false-unreach-call_false-valid-deref.i'
p222
I9
sS'../../c/forester-heap/sll-buckets_true-unreach-call_true-valid-memsafety.i'
p223
I1
sS'../../c/ldv-regression/alias_of_return.c_true-unreach-call_1.i'
p224
I4
sS'../../c/ntdrivers-simplified/floppy_simpl4_false-unreach-call_true-valid-memsafety_true-termination.cil.c'
p225
I9
sS'../../c/ssh-simplified/s3_clnt_1_false-unreach-call.cil.c'
p226
I6
sS'../../c/ssh-simplified/s3_srvr_10_false-unreach-call.cil.c'
p227
I4
sS'../../c/ldv-regression/test_malloc-2_true-unreach-call.i'
p228
I8
sS'../../c/ssh/s3_srvr.blast.01_false-unreach-call.i.cil.c'
p229
I9
sS'../../c/ddv-machzwd/ddv_machzwd_all_false-unreach-call_true-valid-memsafety.i'
p230
I4
sS'../../c/ldv-regression/sizeofparameters_test.c_true-unreach-call.i'
p231
I10
sS'../../c/forester-heap/sll-rb-sentinel_false-unreach-call_false-valid-memcleanup.i'
p232
I5
sS'../../c/ldv-regression/test30_false-unreach-call.c'
p233
I7
sS'../../c/forester-heap/sll-simple-white-blue_true-unreach-call_false-valid-memtrack.i'
p234
I2
sS'../../c/ssh/s3_srvr.blast.16_false-unreach-call.i.cil.c'
p235
I10
sS'../../c/ldv-regression/oomInt.c_true-unreach-call_1.i'
p236
I1
sS'../../c/ntdrivers/kbfiltr_false-unreach-call.i.cil.c'
p237
I7
sS'../../c/list-ext2-properties/list_and_tree_cnstr_true-unreach-call.i'
p238
I1
sS'../../c/forester-heap/sll-rb-cnstr_1_true-unreach-call_true-valid-memsafety.i'
p239
I1
sS'../../c/ldv-regression/test04_true-unreach-call.c'
p240
I1
sS'../../c/ntdrivers-simplified/floppy_simpl3_true-unreach-call_true-valid-memsafety_true-termination.cil.c'
p241
I1
sS'../../c/ldv-regression/test21_false-unreach-call.c'
p242
I4
sS'../../c/ldv-regression/test24_true-unreach-call.c'
p243
I1
sS'../../c/ldv-regression/mutex_lock_struct.c_false-unreach-call.i'
p244
I7
sS'../../c/ssh/s3_clnt.blast.04_false-unreach-call.i.cil.c'
p245
I8
sS'../../c/ldv-regression/test25_true-unreach-call.c'
p246
I1
sS'../../c/ssh-simplified/s3_clnt_2_true-unreach-call_true-termination.cil.c'
p247
I1
sS'../../c/forester-heap/dll-01_true-unreach-call_true-valid-memsafety.i'
p248
I1
sS'../../c/ldv-regression/test_cut_trace.c_true-unreach-call.i'
p249
I3
sS'../../c/heap-manipulation/tree_false-unreach-call_false-valid-memcleanup.i'
p250
I6
sS'../../c/ldv-regression/test16_true-unreach-call.c'
p251
I10
sS'../../c/ssh/s3_clnt.blast.03_false-unreach-call.i.cil.c'
p252
I7
sS'../../c/forester-heap/sll-circular_true-unreach-call_true-valid-memsafety.i'
p253
I1
sS'../../c/forester-heap/sll-rb-cnstr_1_false-unreach-call_false-valid-deref.i'
p254
I2
sS'../../c/ssh/s3_srvr.blast.13_false-unreach-call.i.cil.c'
p255
I9
sS'../../c/forester-heap/sll-01_false-unreach-call_false-valid-deref.i'
p256
I3
sS'../../c/list-properties/simple_false-unreach-call_false-valid-memcleanup.i'
p257
I5
sS'../../c/ldv-regression/test28_false-unreach-call.c'
p258
I10
sS'../../c/locks/test_locks_15_false-unreach-call_true-valid-memsafety_false-termination.c'
p259
I2
sS'../../c/list-properties/list_search_true-unreach-call_false-valid-memtrack.i'
p260
I8
sS'../../c/ldv-regression/test14_true-unreach-call.c'
p261
I1
sS'../../c/ldv-regression/ex3_forlist.c_true-unreach-call.i'
p262
I1
sS'../../c/list-ext2-properties/simple_and_skiplist_2lvl_false-unreach-call.i'
p263
I4
sS'../../c/ssh/s3_srvr.blast.12_false-unreach-call.i.cil.c'
p264
I6
sS'../../c/ldv-regression/test13_true-unreach-call.c'
p265
I3
sS'../../c/ssh/s3_srvr.blast.01_true-unreach-call.i.cil.c'
p266
I1
sS'../../c/ldv-regression/test29_true-unreach-call.c'
p267
I2
s.