(dp0
S'../../c/forester-heap/dll-rb-sentinel_false-unreach-call_false-valid-memtrack.i'
p1
(lp2
I1
aI1
aS'true'
p3
aI500000000
aS'wrong'
p4
aI1
aI2
aS'false(reach)'
p5
aF9.130498898
aS'correct'
p6
aI1
aI3
aS'false(reach)'
p7
aF9.131489668
aS'correct'
p8
aI1
aI4
aS'false(reach)'
p9
aF9.453439118
aS'correct'
p10
aI1
aI5
aS'false(reach)'
p11
aF9.047666811
aS'correct'
p12
aI1
aI6
aS'false(reach)'
p13
aF9.303097416
aS'correct'
p14
aI1
aI7
aS'false(reach)'
p15
aF9.516736704
aS'correct'
p16
aI1
aI8
aS'false(reach)'
p17
aF9.531491607
aS'correct'
p18
aI1
aI9
aS'false(reach)'
p19
aF9.292337809
aS'correct'
p20
aI1
aI10
aS'false(reach)'
p21
aF9.29858549
aS'correct'
p22
asS'../../c/list-properties/splice_true-unreach-call_false-valid-memtrack.i'
p23
(lp24
I1
aI1
aS'true'
p25
aF6.7454573
aS'correct'
p26
aI1
aI2
aS'true'
p27
aF11.676115038
aS'correct'
p28
aI1
aI3
aS'true'
p29
aF11.503158508
aS'correct'
p30
aI1
aI4
aS'true'
p31
aF12.337086384
aS'correct'
p32
aI1
aI5
aS'true'
p33
aF13.28256217
aS'correct'
p34
aI1
aI6
aS'true'
p35
aF14.067126699
aS'correct'
p36
aI1
aI7
aS'true'
p37
aF15.683988212
aS'correct'
p38
aI1
aI8
aS'true'
p39
aF18.850953818
aS'correct'
p40
aI1
aI9
aS'true'
p41
aF22.399267119
aS'correct'
p42
aI1
aI10
aS'true'
p43
aF29.97497319
aS'correct'
p44
asS'../../c/list-ext2-properties/simple_and_skiplist_2lvl_true-unreach-call.i'
p45
(lp46
I1
aI1
aS'true'
p47
aF5.066924056
aS'correct'
p48
aI1
aI2
aS'true'
p49
aF6.664224241
aS'correct'
p50
aI1
aI3
aS'true'
p51
aF6.677141537
aS'correct'
p52
aI1
aI4
aS'true'
p53
aF6.782737167
aS'correct'
p54
aI1
aI5
aS'true'
p55
aF6.702977219
aS'correct'
p56
aI1
aI6
aS'true'
p57
aF7.18080979
aS'correct'
p58
aI1
aI7
aS'true'
p59
aF7.502982455
aS'correct'
p60
aI1
aI8
aS'true'
p61
aF7.809308354
aS'correct'
p62
aI1
aI9
aS'true'
p63
aF8.676877699
aS'correct'
p64
aI1
aI10
aS'true'
p65
aF10.471402471
aS'correct'
p66
asS'../../c/list-ext2-properties/simple_search_value_true-unreach-call.i'
p67
(lp68
I1
aI1
aS'true'
p69
aF3.30374068
aS'correct'
p70
aI1
aI2
aS'true'
p71
aF3.342329488
aS'correct'
p72
aI1
aI3
aS'true'
p73
aF3.324796701
aS'correct'
p74
aI1
aI4
aS'true'
p75
aF3.368438333
aS'correct'
p76
aI1
aI5
aS'true'
p77
aF3.324332648
aS'correct'
p78
aI1
aI6
aS'true'
p79
aF3.356172276
aS'correct'
p80
aI1
aI7
aS'true'
p81
aF3.523364818
aS'correct'
p82
aI1
aI8
aS'true'
p83
aF3.386273714
aS'correct'
p84
aI1
aI9
aS'true'
p85
aF3.509729456
aS'correct'
p86
aI1
aI10
aS'true'
p87
aF3.551273111
aS'correct'
p88
asS'../../c/ldv-regression/test_union_cast-1_true-unreach-call.i'
p89
(lp90
I1
aI1
aS'true'
p91
aF4.191577994
aS'correct'
p92
aI1
aI2
aS'true'
p93
aF4.197673901
aS'correct'
p94
aI1
aI3
aS'true'
p95
aF4.196909536
aS'correct'
p96
aI1
aI4
aS'true'
p97
aF4.299038759
aS'correct'
p98
aI1
aI5
aS'true'
p99
aF4.157618734
aS'correct'
p100
aI1
aI6
aS'true'
p101
aF4.110585763
aS'correct'
p102
aI1
aI7
aS'true'
p103
aF4.209947601
aS'correct'
p104
aI1
aI8
aS'true'
p105
aF4.109448499
aS'correct'
p106
aI1
aI9
aS'true'
p107
aF4.249058239
aS'correct'
p108
aI1
aI10
aS'true'
p109
aF4.211129046
aS'correct'
p110
asS'../../c/ddv-machzwd/ddv_machzwd_outl_p_true-unreach-call_false-valid-memtrack.i'
p111
(lp112
I1
aI1
aS'true'
p113
aF6.965208196
aS'correct'
p114
aI1
aI2
aS'true'
p115
aF7.178830739
aS'correct'
p116
aI1
aI3
aS'true'
p117
aF7.018842722
aS'correct'
p118
aI1
aI4
aS'true'
p119
aF6.870800714
aS'correct'
p120
aI1
aI5
aS'true'
p121
aF7.021356511
aS'correct'
p122
aI1
aI6
aS'true'
p123
aF7.147091774
aS'correct'
p124
aI1
aI7
aS'true'
p125
aF7.003932174
aS'correct'
p126
aI1
aI8
aS'true'
p127
aF7.149815119
aS'correct'
p128
aI1
aI9
aS'true'
p129
aF7.079434664
aS'correct'
p130
aI1
aI10
aS'true'
p131
aF6.892570842
aS'correct'
p132
asS'../../c/ldv-regression/test22_false-unreach-call.c'
p133
(lp134
I1
aI1
aS'false(reach)'
p135
aF5.56915471
aS'correct'
p136
aI1
aI2
aS'false(reach)'
p137
aF5.705418804
aS'correct'
p138
aI1
aI3
aS'false(reach)'
p139
aF5.712057987
aS'correct'
p140
aI1
aI4
aS'false(reach)'
p141
aF5.636060679
aS'correct'
p142
aI1
aI5
aS'false(reach)'
p143
aF5.79496485
aS'correct'
p144
aI1
aI6
aS'false(reach)'
p145
aF5.697585249
aS'correct'
p146
aI1
aI7
aS'false(reach)'
p147
aF5.735607199
aS'correct'
p148
aI1
aI8
aS'false(reach)'
p149
aF5.829141029
aS'correct'
p150
aI1
aI9
aS'false(reach)'
p151
aF5.740864233
aS'correct'
p152
aI1
aI10
aS'false(reach)'
p153
aF5.820173375
aS'correct'
p154
asS'../../c/ldv-regression/nested_structure_noptr.c_true-unreach-call.i'
p155
(lp156
I1
aI1
aS'true'
p157
aF4.27737807
aS'correct'
p158
aI1
aI2
aS'true'
p159
aF4.216259936
aS'correct'
p160
aI1
aI3
aS'true'
p161
aF4.251315556
aS'correct'
p162
aI1
aI4
aS'true'
p163
aF4.200597173
aS'correct'
p164
aI1
aI5
aS'true'
p165
aF4.209050763
aS'correct'
p166
aI1
aI6
aS'true'
p167
aF4.160829375
aS'correct'
p168
aI1
aI7
aS'true'
p169
aF4.289942979
aS'correct'
p170
aI1
aI8
aS'true'
p171
aF4.285315379
aS'correct'
p172
aI1
aI9
aS'true'
p173
aF4.309624123
aS'correct'
p174
aI1
aI10
aS'true'
p175
aF4.212021796
aS'correct'
p176
asS'../../c/list-ext2-properties/list_and_tree_cnstr_false-unreach-call.i'
p177
(lp178
I1
aI1
aS'false(reach)'
p179
aF10.68705438
aS'correct'
p180
aI1
aI2
aS'false(reach)'
p181
aF10.627309425
aS'correct'
p182
aI1
aI3
aS'false(reach)'
p183
aF10.594008557
aS'correct'
p184
aI1
aI4
aS'false(reach)'
p185
aF10.579641677
aS'correct'
p186
aI1
aI5
aS'false(reach)'
p187
aF11.929798693
aS'correct'
p188
aI1
aI6
aS'false(reach)'
p189
aF11.093432873
aS'correct'
p190
aI1
aI7
aS'false(reach)'
p191
aF10.836431529
aS'correct'
p192
aI1
aI8
aS'false(reach)'
p193
aF10.872104156
aS'correct'
p194
aI1
aI9
aS'false(reach)'
p195
aF10.747086904
aS'correct'
p196
aI1
aI10
aS'false(reach)'
p197
aF10.376860702
aS'correct'
p198
asS'../../c/ldv-regression/volatile_alias.c_true-unreach-call.i'
p199
(lp200
I1
aI1
aS'true'
p201
aF4.137328849
aS'correct'
p202
aI1
aI2
aS'true'
p203
aF4.187763282
aS'correct'
p204
aI1
aI3
aS'true'
p205
aF4.154267933
aS'correct'
p206
aI1
aI4
aS'true'
p207
aF4.124483581
aS'correct'
p208
aI1
aI5
aS'true'
p209
aF4.057637822
aS'correct'
p210
aI1
aI6
aS'true'
p211
aF4.097824985
aS'correct'
p212
aI1
aI7
aS'true'
p213
aF4.324931771
aS'correct'
p214
aI1
aI8
aS'true'
p215
aF4.183356949
aS'correct'
p216
aI1
aI9
aS'true'
p217
aF4.211986741
aS'correct'
p218
aI1
aI10
aS'true'
p219
aF4.211840575
aS'correct'
p220
asS'../../c/ldv-regression/test01_true-unreach-call.c'
p221
(lp222
I1
aI1
aS'true'
p223
aF4.317781012
aS'correct'
p224
aI1
aI2
aS'true'
p225
aF4.158254259
aS'correct'
p226
aI1
aI3
aS'true'
p227
aF4.146201218
aS'correct'
p228
aI1
aI4
aS'true'
p229
aF4.197244825
aS'correct'
p230
aI1
aI5
aS'true'
p231
aF4.178555395
aS'correct'
p232
aI1
aI6
aS'true'
p233
aF4.162956253
aS'correct'
p234
aI1
aI7
aS'true'
p235
aF4.20009938
aS'correct'
p236
aI1
aI8
aS'true'
p237
aF4.258459253
aS'correct'
p238
aI1
aI9
aS'true'
p239
aF4.251515158
aS'correct'
p240
aI1
aI10
aS'true'
p241
aF4.117852962
aS'correct'
p242
asS'../../c/forester-heap/dll-token_true-unreach-call_true-valid-memsafety.i'
p243
(lp244
I1
aI1
aS'true'
p245
aF8.309034217
aS'correct'
p246
aI1
aI2
aS'true'
p247
aF8.446321579
aS'correct'
p248
aI1
aI3
aS'true'
p249
aF8.566516163
aS'correct'
p250
aI1
aI4
aS'true'
p251
aF8.869325683
aS'correct'
p252
aI1
aI5
aS'true'
p253
aF9.670461054
aS'correct'
p254
aI1
aI6
aS'true'
p255
aF10.188802264
aS'correct'
p256
aI1
aI7
aS'true'
p257
aF11.333864444
aS'correct'
p258
aI1
aI8
aS'true'
p259
aF12.931959572
aS'correct'
p260
aI1
aI9
aS'true'
p261
aF14.910658345
aS'correct'
p262
aI1
aI10
aS'true'
p263
aF17.141063311
aS'correct'
p264
asS'../../c/heap-manipulation/bubble_sort_linux_true-unreach-call_true-valid-memsafety.i'
p265
(lp266
I1
aI1
aS'true'
p267
aF5.620947321
aS'correct'
p268
aI1
aI2
aS'true'
p269
aF8.231723368
aS'correct'
p270
aI1
aI3
aS'true'
p271
aF52.783161897
aS'correct'
p272
aI1
aI4
aS'TIMEOUT'
p273
aI500000000
aS'error'
p274
aI1
aI5
aS'TIMEOUT'
p275
aI500000000
aS'error'
p276
aI1
aI6
aS'TIMEOUT'
p277
aI500000000
aS'error'
p278
aI1
aI7
aS'TIMEOUT'
p279
aI500000000
aS'error'
p280
aI1
aI8
aS'TIMEOUT'
p281
aI500000000
aS'error'
p282
aI1
aI9
aS'TIMEOUT'
p283
aI500000000
aS'error'
p284
aI1
aI10
aS'TIMEOUT'
p285
aI500000000
aS'error'
p286
asS'../../c/ldv-regression/rule60_list2.c_true-unreach-call.i'
p287
(lp288
I1
aI1
aS'true'
p289
aF5.906019293
aS'correct'
p290
aI1
aI2
aS'true'
p291
aF5.897070223
aS'correct'
p292
aI1
aI3
aS'true'
p293
aF5.953119469
aS'correct'
p294
aI1
aI4
aS'true'
p295
aF6.028045046
aS'correct'
p296
aI1
aI5
aS'true'
p297
aF5.965194548
aS'correct'
p298
aI1
aI6
aS'true'
p299
aF5.885730177
aS'correct'
p300
aI1
aI7
aS'true'
p301
aF5.9337105
aS'correct'
p302
aI1
aI8
aS'true'
p303
aF6.13175899
aS'correct'
p304
aI1
aI9
aS'true'
p305
aF6.054265333
aS'correct'
p306
aI1
aI10
aS'true'
p307
aF5.864661756
aS'correct'
p308
asS'../../c/forester-heap/sll-sorted_false-unreach-call_false-valid-memcleanup.i'
p309
(lp310
I1
aI1
aS'true'
p311
aI500000000
aS'wrong'
p312
aI1
aI2
aS'false(reach)'
p313
aF9.618869255
aS'correct'
p314
aI1
aI3
aS'false(reach)'
p315
aF9.697969608
aS'correct'
p316
aI1
aI4
aS'false(reach)'
p317
aF9.654058332
aS'correct'
p318
aI1
aI5
aS'false(reach)'
p319
aF9.802408283
aS'correct'
p320
aI1
aI6
aS'false(reach)'
p321
aF10.780479452
aS'correct'
p322
aI1
aI7
aS'false(reach)'
p323
aF9.774922624
aS'correct'
p324
aI1
aI8
aS'false(reach)'
p325
aF9.706434439
aS'correct'
p326
aI1
aI9
aS'false(reach)'
p327
aF9.982388208
aS'correct'
p328
aI1
aI10
aS'false(reach)'
p329
aF9.959534217
aS'correct'
p330
asS'../../c/ldv-regression/test02_false-unreach-call.c'
p331
(lp332
I1
aI1
aS'false(reach)'
p333
aF3.451440949
aS'correct'
p334
aI1
aI2
aS'false(reach)'
p335
aF3.444201872
aS'correct'
p336
aI1
aI3
aS'false(reach)'
p337
aF3.420413712
aS'correct'
p338
aI1
aI4
aS'false(reach)'
p339
aF3.421849004
aS'correct'
p340
aI1
aI5
aS'false(reach)'
p341
aF3.494267473
aS'correct'
p342
aI1
aI6
aS'false(reach)'
p343
aF3.486453878
aS'correct'
p344
aI1
aI7
aS'false(reach)'
p345
aF3.435084899
aS'correct'
p346
aI1
aI8
aS'false(reach)'
p347
aF3.469371695
aS'correct'
p348
aI1
aI9
aS'false(reach)'
p349
aF3.432294883
aS'correct'
p350
aI1
aI10
aS'false(reach)'
p351
aF3.386222131
aS'correct'
p352
asS'../../c/ldv-regression/test26_true-unreach-call.c'
p353
(lp354
I1
aI1
aS'true'
p355
aF4.139605677
aS'correct'
p356
aI1
aI2
aS'true'
p357
aF4.094476372
aS'correct'
p358
aI1
aI3
aS'true'
p359
aF4.136583809
aS'correct'
p360
aI1
aI4
aS'true'
p361
aF4.11809168
aS'correct'
p362
aI1
aI5
aS'true'
p363
aF4.269697025
aS'correct'
p364
aI1
aI6
aS'true'
p365
aF4.193733596
aS'correct'
p366
aI1
aI7
aS'true'
p367
aF4.215824184
aS'correct'
p368
aI1
aI8
aS'true'
p369
aF4.15206155
aS'correct'
p370
aI1
aI9
aS'true'
p371
aF4.199900993
aS'correct'
p372
aI1
aI10
aS'true'
p373
aF4.133970004
aS'correct'
p374
asS'../../c/ldv-regression/mutex_lock_int.c_true-unreach-call_1.i'
p375
(lp376
I1
aI1
aS'true'
p377
aF4.28660344
aS'correct'
p378
aI1
aI2
aS'true'
p379
aF4.176928459
aS'correct'
p380
aI1
aI3
aS'true'
p381
aF4.20760307
aS'correct'
p382
aI1
aI4
aS'true'
p383
aF4.257800818
aS'correct'
p384
aI1
aI5
aS'true'
p385
aF4.227035598
aS'correct'
p386
aI1
aI6
aS'true'
p387
aF4.154640847
aS'correct'
p388
aI1
aI7
aS'true'
p389
aF4.259048859
aS'correct'
p390
aI1
aI8
aS'true'
p391
aF4.221543408
aS'correct'
p392
aI1
aI9
aS'true'
p393
aF4.297337301
aS'correct'
p394
aI1
aI10
aS'true'
p395
aF4.168939869
aS'correct'
p396
asS'../../c/heap-manipulation/merge_sort_true-unreach-call_true-valid-memsafety.i'
p397
(lp398
I1
aI1
aS'true'
p399
aF7.150899879
aS'correct'
p400
aI1
aI2
aS'true'
p401
aF11.739520594
aS'correct'
p402
aI1
aI3
aS'true'
p403
aF22.555905606
aS'correct'
p404
aI1
aI4
aS'true'
p405
aF47.304267715
aS'correct'
p406
aI1
aI5
aS'true'
p407
aF481.259411892
aS'correct'
p408
aI1
aI6
aS'TIMEOUT'
p409
aI500000000
aS'error'
p410
aI1
aI7
aS'TIMEOUT'
p411
aI500000000
aS'error'
p412
aI1
aI8
aS'TIMEOUT'
p413
aI500000000
aS'error'
p414
aI1
aI9
aS'TIMEOUT'
p415
aI500000000
aS'error'
p416
aI1
aI10
aS'TIMEOUT'
p417
aI500000000
aS'error'
p418
asS'../../c/heap-manipulation/merge_sort_false-unreach-call_false-valid-memcleanup.i'
p419
(lp420
I1
aI1
aS'false(reach)'
p421
aF6.366713443
aS'correct'
p422
aI1
aI2
aS'false(reach)'
p423
aF6.147422661
aS'correct'
p424
aI1
aI3
aS'false(reach)'
p425
aF6.158409063
aS'correct'
p426
aI1
aI4
aS'false(reach)'
p427
aF6.177530082
aS'correct'
p428
aI1
aI5
aS'false(reach)'
p429
aF6.082302949
aS'correct'
p430
aI1
aI6
aS'false(reach)'
p431
aF6.256413821
aS'correct'
p432
aI1
aI7
aS'false(reach)'
p433
aF6.195076174
aS'correct'
p434
aI1
aI8
aS'false(reach)'
p435
aF6.243163718
aS'correct'
p436
aI1
aI9
aS'false(reach)'
p437
aF6.217380018
aS'correct'
p438
aI1
aI10
aS'false(reach)'
p439
aF6.200051691
aS'correct'
p440
asS'../../c/ldv-regression/test28_true-unreach-call.c'
p441
(lp442
I1
aI1
aS'true'
p443
aF5.597486741
aS'correct'
p444
aI1
aI2
aS'true'
p445
aF5.598058378
aS'correct'
p446
aI1
aI3
aS'true'
p447
aF5.944520813
aS'correct'
p448
aI1
aI4
aS'true'
p449
aF5.543488174
aS'correct'
p450
aI1
aI5
aS'true'
p451
aF5.496920081
aS'correct'
p452
aI1
aI6
aS'true'
p453
aF5.558154562
aS'correct'
p454
aI1
aI7
aS'true'
p455
aF5.771298747
aS'correct'
p456
aI1
aI8
aS'true'
p457
aF5.620703228
aS'correct'
p458
aI1
aI9
aS'true'
p459
aF5.751115455
aS'correct'
p460
aI1
aI10
aS'true'
p461
aF5.638964297
aS'correct'
p462
asS'../../c/ddv-machzwd/ddv_machzwd_outw_p_true-unreach-call_false-valid-memtrack.i'
p463
(lp464
I1
aI1
aS'true'
p465
aF7.083078448
aS'correct'
p466
aI1
aI2
aS'true'
p467
aF6.938885019
aS'correct'
p468
aI1
aI3
aS'true'
p469
aF7.080870948
aS'correct'
p470
aI1
aI4
aS'true'
p471
aF6.953488042
aS'correct'
p472
aI1
aI5
aS'true'
p473
aF7.073374837
aS'correct'
p474
aI1
aI6
aS'true'
p475
aF6.968185306
aS'correct'
p476
aI1
aI7
aS'true'
p477
aF6.986589
aS'correct'
p478
aI1
aI8
aS'true'
p479
aF7.010237787
aS'correct'
p480
aI1
aI9
aS'true'
p481
aF7.044297095
aS'correct'
p482
aI1
aI10
aS'true'
p483
aF7.143538615
aS'correct'
p484
asS'../../c/list-properties/list_true-unreach-call_false-valid-memtrack.i'
p485
(lp486
I1
aI1
aS'true'
p487
aF5.164772438
aS'correct'
p488
aI1
aI2
aS'true'
p489
aF5.236001396
aS'correct'
p490
aI1
aI3
aS'true'
p491
aF5.333262163
aS'correct'
p492
aI1
aI4
aS'true'
p493
aF5.849119787
aS'correct'
p494
aI1
aI5
aS'true'
p495
aF7.237066377
aS'correct'
p496
aI1
aI6
aS'true'
p497
aF10.773357536
aS'correct'
p498
aI1
aI7
aS'true'
p499
aF19.295733287
aS'correct'
p500
aI1
aI8
aS'true'
p501
aF41.340901171
aS'correct'
p502
aI1
aI9
aS'true'
p503
aF117.203332767
aS'correct'
p504
aI1
aI10
aS'true'
p505
aF318.153800519
aS'correct'
p506
asS'../../c/heap-manipulation/bubble_sort_linux_false-unreach-call_false-valid-memcleanup.i'
p507
(lp508
I1
aI1
aS'false(reach)'
p509
aF6.297370332
aS'correct'
p510
aI1
aI2
aS'false(reach)'
p511
aF6.234129419
aS'correct'
p512
aI1
aI3
aS'false(reach)'
p513
aF6.250465013
aS'correct'
p514
aI1
aI4
aS'false(reach)'
p515
aF6.220349751
aS'correct'
p516
aI1
aI5
aS'false(reach)'
p517
aF6.197964534
aS'correct'
p518
aI1
aI6
aS'false(reach)'
p519
aF6.159605802
aS'correct'
p520
aI1
aI7
aS'false(reach)'
p521
aF6.318259714
aS'correct'
p522
aI1
aI8
aS'false(reach)'
p523
aF6.24374735
aS'correct'
p524
aI1
aI9
aS'false(reach)'
p525
aF6.292542739
aS'correct'
p526
aI1
aI10
aS'false(reach)'
p527
aF6.293164864
aS'correct'
p528
asS'../../c/ldv-regression/test14_true-unreach-call.c'
p529
(lp530
I1
aI1
aS'true'
p531
aF5.777271415
aS'correct'
p532
aI1
aI2
aS'true'
p533
aF5.790584553
aS'correct'
p534
aI1
aI3
aS'true'
p535
aF5.829910375
aS'correct'
p536
aI1
aI4
aS'true'
p537
aF6.036436753
aS'correct'
p538
aI1
aI5
aS'true'
p539
aF5.975274306
aS'correct'
p540
aI1
aI6
aS'true'
p541
aF5.828849549
aS'correct'
p542
aI1
aI7
aS'true'
p543
aF5.819568144
aS'correct'
p544
aI1
aI8
aS'true'
p545
aF5.823494549
aS'correct'
p546
aI1
aI9
aS'true'
p547
aF5.861347012
aS'correct'
p548
aI1
aI10
aS'true'
p549
aF5.869500416
aS'correct'
p550
asS'../../c/ddv-machzwd/ddv_machzwd_inw_false-unreach-call_true-valid-memsafety.i'
p551
(lp552
I1
aI1
aS'false(reach)'
p553
aF12.846996133
aS'correct'
p554
aI1
aI2
aS'false(reach)'
p555
aF12.817032377
aS'correct'
p556
aI1
aI3
aS'false(reach)'
p557
aF12.978244194
aS'correct'
p558
aI1
aI4
aS'false(reach)'
p559
aF12.904367899
aS'correct'
p560
aI1
aI5
aS'false(reach)'
p561
aF12.74304226
aS'correct'
p562
aI1
aI6
aS'false(reach)'
p563
aF13.010705177
aS'correct'
p564
aI1
aI7
aS'false(reach)'
p565
aF13.003296395
aS'correct'
p566
aI1
aI8
aS'false(reach)'
p567
aF12.869504103
aS'correct'
p568
aI1
aI9
aS'false(reach)'
p569
aF13.13480301
aS'correct'
p570
aI1
aI10
aS'false(reach)'
p571
aF13.011844864
aS'correct'
p572
asS'../../c/ddv-machzwd/ddv_machzwd_outb_false-unreach-call_true-valid-memsafety.i'
p573
(lp574
I1
aI1
aS'false(reach)'
p575
aF12.918425527
aS'correct'
p576
aI1
aI2
aS'false(reach)'
p577
aF12.764910014
aS'correct'
p578
aI1
aI3
aS'false(reach)'
p579
aF13.234808771
aS'correct'
p580
aI1
aI4
aS'false(reach)'
p581
aF12.904221315
aS'correct'
p582
aI1
aI5
aS'false(reach)'
p583
aF12.954426894
aS'correct'
p584
aI1
aI6
aS'false(reach)'
p585
aF13.06133111
aS'correct'
p586
aI1
aI7
aS'false(reach)'
p587
aF12.950773694
aS'correct'
p588
aI1
aI8
aS'false(reach)'
p589
aF12.863363169
aS'correct'
p590
aI1
aI9
aS'false(reach)'
p591
aF12.747501329
aS'correct'
p592
aI1
aI10
aS'false(reach)'
p593
aF12.742739545
aS'correct'
p594
asS'../../c/forester-heap/sll-buckets_true-unreach-call_true-valid-memsafety.i'
p595
(lp596
I1
aI1
aS'true'
p597
aF8.886035895
aS'correct'
p598
aI1
aI2
aS'true'
p599
aF11.552184801
aS'correct'
p600
aI1
aI3
aS'true'
p601
aF13.577151905
aS'correct'
p602
aI1
aI4
aS'true'
p603
aF20.162782564
aS'correct'
p604
aI1
aI5
aS'true'
p605
aF57.662670548
aS'correct'
p606
aI1
aI6
aS'true'
p607
aF287.53598164
aS'correct'
p608
aI1
aI7
aS'TIMEOUT'
p609
aI500000000
aS'error'
p610
aI1
aI8
aS'TIMEOUT'
p611
aI500000000
aS'error'
p612
aI1
aI9
aS'TIMEOUT'
p613
aI500000000
aS'error'
p614
aI1
aI10
aS'TIMEOUT'
p615
aI500000000
aS'error'
p616
asS'../../c/ldv-regression/test30_true-unreach-call.c'
p617
(lp618
I1
aI1
aS'true'
p619
aF4.186564531
aS'correct'
p620
aI1
aI2
aS'true'
p621
aF4.143619152
aS'correct'
p622
aI1
aI3
aS'true'
p623
aF4.145057175
aS'correct'
p624
aI1
aI4
aS'true'
p625
aF4.285749632
aS'correct'
p626
aI1
aI5
aS'true'
p627
aF4.300950905
aS'correct'
p628
aI1
aI6
aS'true'
p629
aF4.252842265
aS'correct'
p630
aI1
aI7
aS'true'
p631
aF4.222957597
aS'correct'
p632
aI1
aI8
aS'true'
p633
aF4.366606604
aS'correct'
p634
aI1
aI9
aS'true'
p635
aF4.302521495
aS'correct'
p636
aI1
aI10
aS'true'
p637
aF4.195562683
aS'correct'
p638
asS'../../c/ldv-regression/nested_structure_ptr.c_true-unreach-call.i'
p639
(lp640
I1
aI1
aS'true'
p641
aF4.294290432
aS'correct'
p642
aI1
aI2
aS'true'
p643
aF4.303428619
aS'correct'
p644
aI1
aI3
aS'true'
p645
aF4.302509761
aS'correct'
p646
aI1
aI4
aS'true'
p647
aF4.505224033
aS'correct'
p648
aI1
aI5
aS'true'
p649
aF4.384506236
aS'correct'
p650
aI1
aI6
aS'true'
p651
aF4.30766389
aS'correct'
p652
aI1
aI7
aS'true'
p653
aF4.3916432
aS'correct'
p654
aI1
aI8
aS'true'
p655
aF4.465912544
aS'correct'
p656
aI1
aI9
aS'true'
p657
aF4.472574316
aS'correct'
p658
aI1
aI10
aS'true'
p659
aF4.283328459
aS'correct'
p660
asS'../../c/ldv-regression/test_union_cast.c_true-unreach-call.i'
p661
(lp662
I1
aI1
aS'true'
p663
aF4.211054633
aS'correct'
p664
aI1
aI2
aS'true'
p665
aF4.221045793
aS'correct'
p666
aI1
aI3
aS'true'
p667
aF4.070429915
aS'correct'
p668
aI1
aI4
aS'true'
p669
aF4.08928834
aS'correct'
p670
aI1
aI5
aS'true'
p671
aF4.293816551
aS'correct'
p672
aI1
aI6
aS'true'
p673
aF4.737439751
aS'correct'
p674
aI1
aI7
aS'true'
p675
aF4.310835567
aS'correct'
p676
aI1
aI8
aS'true'
p677
aF4.296566717
aS'correct'
p678
aI1
aI9
aS'true'
p679
aF4.159348542
aS'correct'
p680
aI1
aI10
aS'true'
p681
aF4.287286631
aS'correct'
p682
asS'../../c/forester-heap/dll-circular_true-unreach-call_true-valid-memsafety.i'
p683
(lp684
I1
aI1
aS'true'
p685
aF7.443339173
aS'correct'
p686
aI1
aI2
aS'true'
p687
aF7.588765568
aS'correct'
p688
aI1
aI3
aS'true'
p689
aF7.898059572
aS'correct'
p690
aI1
aI4
aS'true'
p691
aF8.777929204
aS'correct'
p692
aI1
aI5
aS'true'
p693
aF10.344152395
aS'correct'
p694
aI1
aI6
aS'true'
p695
aF13.046537246
aS'correct'
p696
aI1
aI7
aS'true'
p697
aF19.650604448
aS'correct'
p698
aI1
aI8
aS'true'
p699
aF33.033043881
aS'correct'
p700
aI1
aI9
aS'true'
p701
aF60.338526532
aS'correct'
p702
aI1
aI10
aS'true'
p703
aF113.351933907
aS'correct'
p704
asS'../../c/heap-manipulation/sll_to_dll_rev_true-unreach-call_true-valid-memsafety.i'
p705
(lp706
I1
aI1
aS'true'
p707
aF7.254121286
aS'correct'
p708
aI1
aI2
aS'true'
p709
aF7.860126914
aS'correct'
p710
aI1
aI3
aS'true'
p711
aF9.535114082
aS'correct'
p712
aI1
aI4
aS'true'
p713
aF15.261715057
aS'correct'
p714
aI1
aI5
aS'true'
p715
aF87.72487635
aS'correct'
p716
aI1
aI6
aS'true'
p717
aF633.322576724
aS'correct'
p718
aI1
aI7
aS'TIMEOUT'
p719
aI500000000
aS'error'
p720
aI1
aI8
aS'TIMEOUT'
p721
aI500000000
aS'error'
p722
aI1
aI9
aS'TIMEOUT'
p723
aI500000000
aS'error'
p724
aI1
aI10
aS'TIMEOUT'
p725
aI500000000
aS'error'
p726
asS'../../c/ldv-regression/test_while_int.c_false-unreach-call_1.i'
p727
(lp728
I1
aI1
aS'true'
p729
aI500000000
aS'wrong'
p730
aI1
aI2
aS'true'
p731
aI500000000
aS'wrong'
p732
aI1
aI3
aS'false(reach)'
p733
aF3.679612415
aS'correct'
p734
aI1
aI4
aS'false(reach)'
p735
aF3.684084969
aS'correct'
p736
aI1
aI5
aS'false(reach)'
p737
aF3.7361581
aS'correct'
p738
aI1
aI6
aS'false(reach)'
p739
aF3.609556639
aS'correct'
p740
aI1
aI7
aS'false(reach)'
p741
aF3.769916758
aS'correct'
p742
aI1
aI8
aS'false(reach)'
p743
aF3.683660312
aS'correct'
p744
aI1
aI9
aS'false(reach)'
p745
aF3.702027706
aS'correct'
p746
aI1
aI10
aS'false(reach)'
p747
aF3.66508841
aS'correct'
p748
asS'../../c/list-properties/alternating_list_true-unreach-call_true-valid-memsafety.i'
p749
(lp750
I1
aI1
aS'true'
p751
aF4.910256174
aS'correct'
p752
aI1
aI2
aS'true'
p753
aF7.946554199
aS'correct'
p754
aI1
aI3
aS'true'
p755
aF8.343702568
aS'correct'
p756
aI1
aI4
aS'true'
p757
aF8.247872763
aS'correct'
p758
aI1
aI5
aS'true'
p759
aF8.441418602
aS'correct'
p760
aI1
aI6
aS'true'
p761
aF8.815014321
aS'correct'
p762
aI1
aI7
aS'true'
p763
aF9.387703245
aS'correct'
p764
aI1
aI8
aS'true'
p765
aF10.268838507
aS'correct'
p766
aI1
aI9
aS'true'
p767
aF11.1749711
aS'correct'
p768
aI1
aI10
aS'true'
p769
aF12.785032425
aS'correct'
p770
asS'../../c/heap-manipulation/tree_false-unreach-call_false-valid-deref.i'
p771
(lp772
I1
aI1
aS'false(reach)'
p773
aF4.417825236
aS'correct'
p774
aI1
aI2
aS'false(reach)'
p775
aF4.316382622
aS'correct'
p776
aI1
aI3
aS'false(reach)'
p777
aF4.362701903
aS'correct'
p778
aI1
aI4
aS'false(reach)'
p779
aF4.311213747
aS'correct'
p780
aI1
aI5
aS'false(reach)'
p781
aF4.356944164
aS'correct'
p782
aI1
aI6
aS'false(reach)'
p783
aF4.348015772
aS'correct'
p784
aI1
aI7
aS'false(reach)'
p785
aF4.351711595
aS'correct'
p786
aI1
aI8
aS'false(reach)'
p787
aF4.397551716
aS'correct'
p788
aI1
aI9
aS'false(reach)'
p789
aF4.417549454
aS'correct'
p790
aI1
aI10
aS'false(reach)'
p791
aF4.418321214
aS'correct'
p792
asS'../../c/forester-heap/dll-queue_true-unreach-call_true-valid-memsafety.i'
p793
(lp794
I1
aI1
aS'true'
p795
aF7.010474708
aS'correct'
p796
aI1
aI2
aS'true'
p797
aF6.946544489
aS'correct'
p798
aI1
aI3
aS'true'
p799
aF6.981645139
aS'correct'
p800
aI1
aI4
aS'true'
p801
aF7.377779726
aS'correct'
p802
aI1
aI5
aS'true'
p803
aF8.046640283
aS'correct'
p804
aI1
aI6
aS'true'
p805
aF8.784040229
aS'correct'
p806
aI1
aI7
aS'true'
p807
aF9.917064247
aS'correct'
p808
aI1
aI8
aS'true'
p809
aF11.209757528
aS'correct'
p810
aI1
aI9
aS'true'
p811
aF13.338166699
aS'correct'
p812
aI1
aI10
aS'true'
p813
aF15.831184285
aS'correct'
p814
asS'../../c/ddv-machzwd/ddv_machzwd_inw_p_true-unreach-call_false-valid-memtrack.i'
p815
(lp816
I1
aI1
aS'true'
p817
aF6.946076384
aS'correct'
p818
aI1
aI2
aS'true'
p819
aF7.025469913
aS'correct'
p820
aI1
aI3
aS'true'
p821
aF6.98035576
aS'correct'
p822
aI1
aI4
aS'true'
p823
aF7.288329768
aS'correct'
p824
aI1
aI5
aS'true'
p825
aF7.174754057
aS'correct'
p826
aI1
aI6
aS'true'
p827
aF6.940557788
aS'correct'
p828
aI1
aI7
aS'true'
p829
aF7.04627008
aS'correct'
p830
aI1
aI8
aS'true'
p831
aF7.140456024
aS'correct'
p832
aI1
aI9
aS'true'
p833
aF7.019071351
aS'correct'
p834
aI1
aI10
aS'true'
p835
aF7.171490007
aS'correct'
p836
asS'../../c/ldv-regression/alias_of_return_2.c_true-unreach-call.i'
p837
(lp838
I1
aI1
aS'true'
p839
aF4.270812491
aS'correct'
p840
aI1
aI2
aS'true'
p841
aF4.309661039
aS'correct'
p842
aI1
aI3
aS'true'
p843
aF4.333239135
aS'correct'
p844
aI1
aI4
aS'true'
p845
aF4.220790471
aS'correct'
p846
aI1
aI5
aS'true'
p847
aF4.209210726
aS'correct'
p848
aI1
aI6
aS'true'
p849
aF4.144733675
aS'correct'
p850
aI1
aI7
aS'true'
p851
aF4.411682448
aS'correct'
p852
aI1
aI8
aS'true'
p853
aF4.257832498
aS'correct'
p854
aI1
aI9
aS'true'
p855
aF4.289953155
aS'correct'
p856
aI1
aI10
aS'true'
p857
aF4.269094902
aS'correct'
p858
asS'../../c/forester-heap/sll-reverse_simple_true-unreach-call_true-valid-memsafety.i'
p859
(lp860
I1
aI1
aS'true'
p861
aF6.782459388
aS'correct'
p862
aI1
aI2
aS'true'
p863
aF8.698298101
aS'correct'
p864
aI1
aI3
aS'true'
p865
aF8.838344696
aS'correct'
p866
aI1
aI4
aS'true'
p867
aF9.658337536
aS'correct'
p868
aI1
aI5
aS'true'
p869
aF11.049523962
aS'correct'
p870
aI1
aI6
aS'true'
p871
aF14.275552212
aS'correct'
p872
aI1
aI7
aS'true'
p873
aF20.203636378
aS'correct'
p874
aI1
aI8
aS'true'
p875
aF31.022110697
aS'correct'
p876
aI1
aI9
aS'true'
p877
aF52.231645756
aS'correct'
p878
aI1
aI10
aS'true'
p879
aF99.564054022
aS'correct'
p880
asS'../../c/forester-heap/sll-optional_false-unreach-call_false-valid-memcleanup.i'
p881
(lp882
I1
aI1
aS'false(reach)'
p883
aF4.152593944
aS'correct'
p884
aI1
aI2
aS'false(reach)'
p885
aF4.190952039
aS'correct'
p886
aI1
aI3
aS'false(reach)'
p887
aF4.16462792
aS'correct'
p888
aI1
aI4
aS'false(reach)'
p889
aF4.262031762
aS'correct'
p890
aI1
aI5
aS'false(reach)'
p891
aF4.117464102
aS'correct'
p892
aI1
aI6
aS'false(reach)'
p893
aF4.149335674
aS'correct'
p894
aI1
aI7
aS'false(reach)'
p895
aF4.222253857
aS'correct'
p896
aI1
aI8
aS'false(reach)'
p897
aF4.219568119
aS'correct'
p898
aI1
aI9
aS'false(reach)'
p899
aF4.239049407
aS'correct'
p900
aI1
aI10
aS'false(reach)'
p901
aF4.145192935
aS'correct'
p902
asS'../../c/ldv-regression/callfpointer.c_false-unreach-call.i'
p903
(lp904
I1
aI1
aS'false(reach)'
p905
aF3.47802023
aS'correct'
p906
aI1
aI2
aS'false(reach)'
p907
aF3.49137157
aS'correct'
p908
aI1
aI3
aS'false(reach)'
p909
aF3.449383494
aS'correct'
p910
aI1
aI4
aS'false(reach)'
p911
aF3.634552622
aS'correct'
p912
aI1
aI5
aS'false(reach)'
p913
aF3.446758029
aS'correct'
p914
aI1
aI6
aS'false(reach)'
p915
aF3.434166693
aS'correct'
p916
aI1
aI7
aS'false(reach)'
p917
aF3.380806031
aS'correct'
p918
aI1
aI8
aS'false(reach)'
p919
aF3.498502888
aS'correct'
p920
aI1
aI9
aS'false(reach)'
p921
aF3.451788366
aS'correct'
p922
aI1
aI10
aS'false(reach)'
p923
aF3.486418133
aS'correct'
p924
asS'../../c/ldv-regression/test24_false-unreach-call.c'
p925
(lp926
I1
aI1
aS'false(reach)'
p927
aF4.595110793
aS'correct'
p928
aI1
aI2
aS'false(reach)'
p929
aF4.605001173
aS'correct'
p930
aI1
aI3
aS'false(reach)'
p931
aF4.56923991
aS'correct'
p932
aI1
aI4
aS'false(reach)'
p933
aF4.650682996
aS'correct'
p934
aI1
aI5
aS'false(reach)'
p935
aF4.561614939
aS'correct'
p936
aI1
aI6
aS'false(reach)'
p937
aF4.674460847
aS'correct'
p938
aI1
aI7
aS'false(reach)'
p939
aF4.635994081
aS'correct'
p940
aI1
aI8
aS'false(reach)'
p941
aF4.551593601
aS'correct'
p942
aI1
aI9
aS'false(reach)'
p943
aF4.691710477
aS'correct'
p944
aI1
aI10
aS'false(reach)'
p945
aF4.642903208
aS'correct'
p946
asS'../../c/ddv-machzwd/ddv_machzwd_inl_p_true-unreach-call_false-valid-memtrack.i'
p947
(lp948
I1
aI1
aS'true'
p949
aF6.938850768
aS'correct'
p950
aI1
aI2
aS'true'
p951
aF6.933054205
aS'correct'
p952
aI1
aI3
aS'true'
p953
aF7.115547268
aS'correct'
p954
aI1
aI4
aS'true'
p955
aF6.828388136
aS'correct'
p956
aI1
aI5
aS'true'
p957
aF6.873110079
aS'correct'
p958
aI1
aI6
aS'true'
p959
aF7.089532503
aS'correct'
p960
aI1
aI7
aS'true'
p961
aF6.982715212
aS'correct'
p962
aI1
aI8
aS'true'
p963
aF7.123572793
aS'correct'
p964
aI1
aI9
aS'true'
p965
aF7.025568989
aS'correct'
p966
aI1
aI10
aS'true'
p967
aF6.934508907
aS'correct'
p968
asS'../../c/ldv-regression/mutex_lock_int.c_false-unreach-call.i'
p969
(lp970
I1
aI1
aS'false(reach)'
p971
aF4.916974059
aS'correct'
p972
aI1
aI2
aS'false(reach)'
p973
aF4.862447466
aS'correct'
p974
aI1
aI3
aS'false(reach)'
p975
aF4.814601575
aS'correct'
p976
aI1
aI4
aS'false(reach)'
p977
aF4.835673452
aS'correct'
p978
aI1
aI5
aS'false(reach)'
p979
aF4.683423261
aS'correct'
p980
aI1
aI6
aS'false(reach)'
p981
aF4.784462431
aS'correct'
p982
aI1
aI7
aS'false(reach)'
p983
aF4.7987557
aS'correct'
p984
aI1
aI8
aS'false(reach)'
p985
aF4.887320787
aS'correct'
p986
aI1
aI9
aS'false(reach)'
p987
aF4.814681878
aS'correct'
p988
aI1
aI10
aS'false(reach)'
p989
aF4.784703256
aS'correct'
p990
asS'../../c/ldv-regression/test09_true-unreach-call.c'
p991
(lp992
I1
aI1
aS'true'
p993
aF4.249135216
aS'correct'
p994
aI1
aI2
aS'true'
p995
aF4.270066662
aS'correct'
p996
aI1
aI3
aS'true'
p997
aF4.301184838
aS'correct'
p998
aI1
aI4
aS'true'
p999
aF4.35582996
aS'correct'
p1000
aI1
aI5
aS'true'
p1001
aF4.239684164
aS'correct'
p1002
aI1
aI6
aS'true'
p1003
aF5.041003478
aS'correct'
p1004
aI1
aI7
aS'true'
p1005
aF4.349238708
aS'correct'
p1006
aI1
aI8
aS'true'
p1007
aF4.289331708
aS'correct'
p1008
aI1
aI9
aS'true'
p1009
aF4.314480375
aS'correct'
p1010
aI1
aI10
aS'true'
p1011
aF4.204490093
aS'correct'
p1012
asS'../../c/ldv-regression/just_assert.c_true-unreach-call.i'
p1013
(lp1014
I1
aI1
aS'true'
p1015
aF2.750990067
aS'correct'
p1016
aI1
aI2
aS'true'
p1017
aF2.809452803
aS'correct'
p1018
aI1
aI3
aS'true'
p1019
aF2.817514061
aS'correct'
p1020
aI1
aI4
aS'true'
p1021
aF2.78240997
aS'correct'
p1022
aI1
aI5
aS'true'
p1023
aF2.815303994
aS'correct'
p1024
aI1
aI6
aS'true'
p1025
aF2.807703652
aS'correct'
p1026
aI1
aI7
aS'true'
p1027
aF2.8200732
aS'correct'
p1028
aI1
aI8
aS'true'
p1029
aF2.794961498
aS'correct'
p1030
aI1
aI9
aS'true'
p1031
aF2.822731254
aS'correct'
p1032
aI1
aI10
aS'true'
p1033
aF2.841588799
aS'correct'
p1034
asS'../../c/heap-manipulation/dll_of_dll_false-unreach-call_false-valid-memcleanup.i'
p1035
(lp1036
I1
aI1
aS'true'
p1037
aI500000000
aS'wrong'
p1038
aI1
aI2
aS'false(reach)'
p1039
aF12.102556829
aS'correct'
p1040
aI1
aI3
aS'false(reach)'
p1041
aF11.972315745
aS'correct'
p1042
aI1
aI4
aS'false(reach)'
p1043
aF11.976630472
aS'correct'
p1044
aI1
aI5
aS'false(reach)'
p1045
aF12.303049975
aS'correct'
p1046
aI1
aI6
aS'false(reach)'
p1047
aF12.065800336
aS'correct'
p1048
aI1
aI7
aS'false(reach)'
p1049
aF12.091816065
aS'correct'
p1050
aI1
aI8
aS'false(reach)'
p1051
aF11.975171553
aS'correct'
p1052
aI1
aI9
aS'false(reach)'
p1053
aF12.125923441
aS'correct'
p1054
aI1
aI10
aS'false(reach)'
p1055
aF12.169304617
aS'correct'
p1056
asS'../../c/forester-heap/dll-optional_false-unreach-call_false-valid-memcleanup.i'
p1057
(lp1058
I1
aI1
aS'false(reach)'
p1059
aF4.216166784
aS'correct'
p1060
aI1
aI2
aS'false(reach)'
p1061
aF4.183397266
aS'correct'
p1062
aI1
aI3
aS'false(reach)'
p1063
aF4.202127629
aS'correct'
p1064
aI1
aI4
aS'false(reach)'
p1065
aF4.229933074
aS'correct'
p1066
aI1
aI5
aS'false(reach)'
p1067
aF4.147120941
aS'correct'
p1068
aI1
aI6
aS'false(reach)'
p1069
aF4.133616752
aS'correct'
p1070
aI1
aI7
aS'false(reach)'
p1071
aF4.247258459
aS'correct'
p1072
aI1
aI8
aS'false(reach)'
p1073
aF4.196647756
aS'correct'
p1074
aI1
aI9
aS'false(reach)'
p1075
aF4.248610388
aS'correct'
p1076
aI1
aI10
aS'false(reach)'
p1077
aF4.2552171
aS'correct'
p1078
asS'../../c/ldv-regression/test08_false-unreach-call.c'
p1079
(lp1080
I1
aI1
aS'false(reach)'
p1081
aF3.426433975
aS'correct'
p1082
aI1
aI2
aS'false(reach)'
p1083
aF3.505050014
aS'correct'
p1084
aI1
aI3
aS'false(reach)'
p1085
aF3.53051512
aS'correct'
p1086
aI1
aI4
aS'false(reach)'
p1087
aF3.438025919
aS'correct'
p1088
aI1
aI5
aS'false(reach)'
p1089
aF3.473618772
aS'correct'
p1090
aI1
aI6
aS'false(reach)'
p1091
aF3.553694838
aS'correct'
p1092
aI1
aI7
aS'false(reach)'
p1093
aF3.520251574
aS'correct'
p1094
aI1
aI8
aS'false(reach)'
p1095
aF3.529505643
aS'correct'
p1096
aI1
aI9
aS'false(reach)'
p1097
aF3.488637875
aS'correct'
p1098
aI1
aI10
aS'false(reach)'
p1099
aF3.517819618
aS'correct'
p1100
asS'../../c/list-properties/splice_false-unreach-call_false-valid-memcleanup.i'
p1101
(lp1102
I1
aI1
aS'false(reach)'
p1103
aF4.150443285
aS'correct'
p1104
aI1
aI2
aS'false(reach)'
p1105
aF4.100854439
aS'correct'
p1106
aI1
aI3
aS'false(reach)'
p1107
aF4.158810141
aS'correct'
p1108
aI1
aI4
aS'false(reach)'
p1109
aF4.119833714
aS'correct'
p1110
aI1
aI5
aS'false(reach)'
p1111
aF4.146851668
aS'correct'
p1112
aI1
aI6
aS'false(reach)'
p1113
aF4.129336197
aS'correct'
p1114
aI1
aI7
aS'false(reach)'
p1115
aF4.16392069
aS'correct'
p1116
aI1
aI8
aS'false(reach)'
p1117
aF4.042851808
aS'correct'
p1118
aI1
aI9
aS'false(reach)'
p1119
aF4.060108471
aS'correct'
p1120
aI1
aI10
aS'false(reach)'
p1121
aF4.053229647
aS'correct'
p1122
asS'../../c/heap-manipulation/sll_to_dll_rev_false-unreach-call_false-valid-memcleanup.i'
p1123
(lp1124
I1
aI1
aS'false(reach)'
p1125
aF6.228816829
aS'correct'
p1126
aI1
aI2
aS'false(reach)'
p1127
aF6.268835573
aS'correct'
p1128
aI1
aI3
aS'false(reach)'
p1129
aF6.178009325
aS'correct'
p1130
aI1
aI4
aS'false(reach)'
p1131
aF6.162971782
aS'correct'
p1132
aI1
aI5
aS'false(reach)'
p1133
aF6.271144256
aS'correct'
p1134
aI1
aI6
aS'false(reach)'
p1135
aF6.33042605
aS'correct'
p1136
aI1
aI7
aS'false(reach)'
p1137
aF6.278475151
aS'correct'
p1138
aI1
aI8
aS'false(reach)'
p1139
aF6.242878461
aS'correct'
p1140
aI1
aI9
aS'false(reach)'
p1141
aF6.336514025
aS'correct'
p1142
aI1
aI10
aS'false(reach)'
p1143
aF6.545968812
aS'correct'
p1144
asS'../../c/forester-heap/sll-queue_false-unreach-call_false-valid-memcleanup.i'
p1145
(lp1146
I1
aI1
aS'true'
p1147
aI500000000
aS'wrong'
p1148
aI1
aI2
aS'true'
p1149
aI500000000
aS'wrong'
p1150
aI1
aI3
aS'false(reach)'
p1151
aF7.823477958
aS'correct'
p1152
aI1
aI4
aS'false(reach)'
p1153
aF7.626394928
aS'correct'
p1154
aI1
aI5
aS'false(reach)'
p1155
aF8.042127263
aS'correct'
p1156
aI1
aI6
aS'false(reach)'
p1157
aF7.824681415
aS'correct'
p1158
aI1
aI7
aS'false(reach)'
p1159
aF7.899143452
aS'correct'
p1160
aI1
aI8
aS'false(reach)'
p1161
aF7.678527933
aS'correct'
p1162
aI1
aI9
aS'false(reach)'
p1163
aF7.731765856
aS'correct'
p1164
aI1
aI10
aS'false(reach)'
p1165
aF7.672024767
aS'correct'
p1166
asS'../../c/ldv-regression/test_union.c_true-unreach-call_1.i'
p1167
(lp1168
I1
aI1
aS'true'
p1169
aF4.153641149
aS'correct'
p1170
aI1
aI2
aS'true'
p1171
aF4.181008464
aS'correct'
p1172
aI1
aI3
aS'true'
p1173
aF5.106279347
aS'correct'
p1174
aI1
aI4
aS'true'
p1175
aF4.265856905
aS'correct'
p1176
aI1
aI5
aS'true'
p1177
aF4.174371889
aS'correct'
p1178
aI1
aI6
aS'true'
p1179
aF4.175420433
aS'correct'
p1180
aI1
aI7
aS'true'
p1181
aF4.190640909
aS'correct'
p1182
aI1
aI8
aS'true'
p1183
aF4.203654138
aS'correct'
p1184
aI1
aI9
aS'true'
p1185
aF4.204592844
aS'correct'
p1186
aI1
aI10
aS'true'
p1187
aF4.249554316
aS'correct'
p1188
asS'../../c/ldv-regression/fo_test.c_false-unreach-call.i'
p1189
(lp1190
I1
aI1
aS'false(reach)'
p1191
aF5.075826155
aS'correct'
p1192
aI1
aI2
aS'false(reach)'
p1193
aF5.063180803
aS'correct'
p1194
aI1
aI3
aS'false(reach)'
p1195
aF5.059451641
aS'correct'
p1196
aI1
aI4
aS'false(reach)'
p1197
aF4.982509977
aS'correct'
p1198
aI1
aI5
aS'false(reach)'
p1199
aF5.020498196
aS'correct'
p1200
aI1
aI6
aS'false(reach)'
p1201
aF4.852180006
aS'correct'
p1202
aI1
aI7
aS'false(reach)'
p1203
aF5.03510398
aS'correct'
p1204
aI1
aI8
aS'false(reach)'
p1205
aF4.87698197
aS'correct'
p1206
aI1
aI9
aS'false(reach)'
p1207
aF4.974575783
aS'correct'
p1208
aI1
aI10
aS'false(reach)'
p1209
aF4.863743565
aS'correct'
p1210
asS'../../c/ldv-regression/test05_true-unreach-call.c'
p1211
(lp1212
I1
aI1
aS'true'
p1213
aF5.610305584
aS'correct'
p1214
aI1
aI2
aS'true'
p1215
aF5.819313271
aS'correct'
p1216
aI1
aI3
aS'true'
p1217
aF5.629339662
aS'correct'
p1218
aI1
aI4
aS'true'
p1219
aF5.581616339
aS'correct'
p1220
aI1
aI5
aS'true'
p1221
aF5.721814903
aS'correct'
p1222
aI1
aI6
aS'true'
p1223
aF5.626725589
aS'correct'
p1224
aI1
aI7
aS'true'
p1225
aF5.648092063
aS'correct'
p1226
aI1
aI8
aS'true'
p1227
aF5.924074565
aS'correct'
p1228
aI1
aI9
aS'true'
p1229
aF5.756596647
aS'correct'
p1230
aI1
aI10
aS'true'
p1231
aF5.711107956
aS'correct'
p1232
asS'../../c/ldv-regression/test13_true-unreach-call.c'
p1233
(lp1234
I1
aI1
aS'true'
p1235
aF4.138625818
aS'correct'
p1236
aI1
aI2
aS'true'
p1237
aF4.234082037
aS'correct'
p1238
aI1
aI3
aS'true'
p1239
aF4.102871321
aS'correct'
p1240
aI1
aI4
aS'true'
p1241
aF4.18556686
aS'correct'
p1242
aI1
aI5
aS'true'
p1243
aF4.106093384
aS'correct'
p1244
aI1
aI6
aS'true'
p1245
aF4.142541626
aS'correct'
p1246
aI1
aI7
aS'true'
p1247
aF4.222783733
aS'correct'
p1248
aI1
aI8
aS'true'
p1249
aF4.194779068
aS'correct'
p1250
aI1
aI9
aS'true'
p1251
aF4.152274778
aS'correct'
p1252
aI1
aI10
aS'true'
p1253
aF4.301207933
aS'correct'
p1254
asS'../../c/ldv-regression/structure_assignment.c_true-unreach-call.i'
p1255
(lp1256
I1
aI1
aS'true'
p1257
aF4.230549982
aS'correct'
p1258
aI1
aI2
aS'true'
p1259
aF4.246057567
aS'correct'
p1260
aI1
aI3
aS'true'
p1261
aF4.30542752
aS'correct'
p1262
aI1
aI4
aS'true'
p1263
aF4.330670675
aS'correct'
p1264
aI1
aI5
aS'true'
p1265
aF4.314356468
aS'correct'
p1266
aI1
aI6
aS'true'
p1267
aF4.27679194
aS'correct'
p1268
aI1
aI7
aS'true'
p1269
aF4.323256832
aS'correct'
p1270
aI1
aI8
aS'true'
p1271
aF4.358347058
aS'correct'
p1272
aI1
aI9
aS'true'
p1273
aF4.396143659
aS'correct'
p1274
aI1
aI10
aS'true'
p1275
aF4.341497187
aS'correct'
p1276
asS'../../c/ldv-regression/test25_false-unreach-call.c'
p1277
(lp1278
I1
aI1
aS'true'
p1279
aI500000000
aS'wrong'
p1280
aI1
aI2
aS'true'
p1281
aI500000000
aS'wrong'
p1282
aI1
aI3
aS'true'
p1283
aI500000000
aS'wrong'
p1284
aI1
aI4
aS'true'
p1285
aI500000000
aS'wrong'
p1286
aI1
aI5
aS'true'
p1287
aI500000000
aS'wrong'
p1288
aI1
aI6
aS'true'
p1289
aI500000000
aS'wrong'
p1290
aI1
aI7
aS'true'
p1291
aI500000000
aS'wrong'
p1292
aI1
aI8
aS'true'
p1293
aI500000000
aS'wrong'
p1294
aI1
aI9
aS'true'
p1295
aI500000000
aS'wrong'
p1296
aI1
aI10
aS'true'
p1297
aI500000000
aS'wrong'
p1298
asS'../../c/list-ext-properties/simple-ext_false-unreach-call_false-valid-memcleanup.i'
p1299
(lp1300
I1
aI1
aS'false(reach)'
p1301
aF3.968204179
aS'correct'
p1302
aI1
aI2
aS'false(reach)'
p1303
aF3.985640785
aS'correct'
p1304
aI1
aI3
aS'false(reach)'
p1305
aF3.946846975
aS'correct'
p1306
aI1
aI4
aS'false(reach)'
p1307
aF3.966674148
aS'correct'
p1308
aI1
aI5
aS'false(reach)'
p1309
aF4.034113112
aS'correct'
p1310
aI1
aI6
aS'false(reach)'
p1311
aF4.078929639
aS'correct'
p1312
aI1
aI7
aS'false(reach)'
p1313
aF4.092740603
aS'correct'
p1314
aI1
aI8
aS'false(reach)'
p1315
aF4.065136582
aS'correct'
p1316
aI1
aI9
aS'false(reach)'
p1317
aF3.956663271
aS'correct'
p1318
aI1
aI10
aS'false(reach)'
p1319
aF3.865368508
aS'correct'
p1320
asS'../../c/list-properties/alternating_list_false-unreach-call_false-valid-memcleanup.i'
p1321
(lp1322
I1
aI1
aS'false(reach)'
p1323
aF4.060162675
aS'correct'
p1324
aI1
aI2
aS'false(reach)'
p1325
aF4.096073361
aS'correct'
p1326
aI1
aI3
aS'false(reach)'
p1327
aF4.146597917
aS'correct'
p1328
aI1
aI4
aS'false(reach)'
p1329
aF3.950123063
aS'correct'
p1330
aI1
aI5
aS'false(reach)'
p1331
aF4.021558037
aS'correct'
p1332
aI1
aI6
aS'false(reach)'
p1333
aF4.011056537
aS'correct'
p1334
aI1
aI7
aS'false(reach)'
p1335
aF4.014322426
aS'correct'
p1336
aI1
aI8
aS'false(reach)'
p1337
aF3.936710277
aS'correct'
p1338
aI1
aI9
aS'false(reach)'
p1339
aF4.039904499
aS'correct'
p1340
aI1
aI10
aS'false(reach)'
p1341
aF4.046563428
aS'correct'
p1342
asS'../../c/ldv-regression/volatile_alias.c_true-unreach-call_1.i'
p1343
(lp1344
I1
aI1
aS'true'
p1345
aF2.786289854
aS'correct'
p1346
aI1
aI2
aS'true'
p1347
aF2.787083973
aS'correct'
p1348
aI1
aI3
aS'true'
p1349
aF2.827734791
aS'correct'
p1350
aI1
aI4
aS'true'
p1351
aF2.846648749
aS'correct'
p1352
aI1
aI5
aS'true'
p1353
aF2.751487071
aS'correct'
p1354
aI1
aI6
aS'true'
p1355
aF2.808651936
aS'correct'
p1356
aI1
aI7
aS'true'
p1357
aF2.832180703
aS'correct'
p1358
aI1
aI8
aS'true'
p1359
aF2.810351071
aS'correct'
p1360
aI1
aI9
aS'true'
p1361
aF2.805708835
aS'correct'
p1362
aI1
aI10
aS'true'
p1363
aF2.817682219
aS'correct'
p1364
asS'../../c/ldv-regression/nested_structure_ptr_true-unreach-call.i'
p1365
(lp1366
I1
aI1
aS'true'
p1367
aF4.423577361
aS'correct'
p1368
aI1
aI2
aS'true'
p1369
aF4.318546227
aS'correct'
p1370
aI1
aI3
aS'true'
p1371
aF4.378697659
aS'correct'
p1372
aI1
aI4
aS'true'
p1373
aF4.323025751
aS'correct'
p1374
aI1
aI5
aS'true'
p1375
aF4.384057688
aS'correct'
p1376
aI1
aI6
aS'true'
p1377
aF4.405775887
aS'correct'
p1378
aI1
aI7
aS'true'
p1379
aF4.347992154
aS'correct'
p1380
aI1
aI8
aS'true'
p1381
aF4.394408606
aS'correct'
p1382
aI1
aI9
aS'true'
p1383
aF4.380595162
aS'correct'
p1384
aI1
aI10
aS'true'
p1385
aF4.305504227
aS'correct'
p1386
asS'../../c/ldv-regression/stateful_check_false-unreach-call.i'
p1387
(lp1388
I1
aI1
aS'true'
p1389
aI500000000
aS'wrong'
p1390
aI1
aI2
aS'true'
p1391
aI500000000
aS'wrong'
p1392
aI1
aI3
aS'true'
p1393
aI500000000
aS'wrong'
p1394
aI1
aI4
aS'false(reach)'
p1395
aF6.148521253
aS'correct'
p1396
aI1
aI5
aS'false(reach)'
p1397
aF6.21779367
aS'correct'
p1398
aI1
aI6
aS'false(reach)'
p1399
aF6.144726764
aS'correct'
p1400
aI1
aI7
aS'false(reach)'
p1401
aF6.246540796
aS'correct'
p1402
aI1
aI8
aS'false(reach)'
p1403
aF6.243248087
aS'correct'
p1404
aI1
aI9
aS'false(reach)'
p1405
aF6.29364005
aS'correct'
p1406
aI1
aI10
aS'false(reach)'
p1407
aF6.09818678
aS'correct'
p1408
asS'../../c/ldv-regression/test23_false-unreach-call.c'
p1409
(lp1410
I1
aI1
aS'true'
p1411
aI500000000
aS'wrong'
p1412
aI1
aI2
aS'true'
p1413
aI500000000
aS'wrong'
p1414
aI1
aI3
aS'true'
p1415
aI500000000
aS'wrong'
p1416
aI1
aI4
aS'true'
p1417
aI500000000
aS'wrong'
p1418
aI1
aI5
aS'true'
p1419
aI500000000
aS'wrong'
p1420
aI1
aI6
aS'true'
p1421
aI500000000
aS'wrong'
p1422
aI1
aI7
aS'true'
p1423
aI500000000
aS'wrong'
p1424
aI1
aI8
aS'true'
p1425
aI500000000
aS'wrong'
p1426
aI1
aI9
aS'true'
p1427
aI500000000
aS'wrong'
p1428
aI1
aI10
aS'true'
p1429
aI500000000
aS'wrong'
p1430
asS'../../c/ldv-regression/rule60_list.c_true-unreach-call.i'
p1431
(lp1432
I1
aI1
aS'true'
p1433
aF4.298141476
aS'correct'
p1434
aI1
aI2
aS'true'
p1435
aF4.359847635
aS'correct'
p1436
aI1
aI3
aS'true'
p1437
aF4.274741459
aS'correct'
p1438
aI1
aI4
aS'true'
p1439
aF4.338852019
aS'correct'
p1440
aI1
aI5
aS'true'
p1441
aF4.253237645
aS'correct'
p1442
aI1
aI6
aS'true'
p1443
aF4.232410504
aS'correct'
p1444
aI1
aI7
aS'true'
p1445
aF4.330219951
aS'correct'
p1446
aI1
aI8
aS'true'
p1447
aF4.369371541
aS'correct'
p1448
aI1
aI9
aS'true'
p1449
aF4.330967178
aS'correct'
p1450
aI1
aI10
aS'true'
p1451
aF4.272069949
aS'correct'
p1452
asS'../../c/ldv-regression/test10_true-unreach-call.c'
p1453
(lp1454
I1
aI1
aS'true'
p1455
aF4.405838586
aS'correct'
p1456
aI1
aI2
aS'true'
p1457
aF4.372280608
aS'correct'
p1458
aI1
aI3
aS'true'
p1459
aF4.492221255
aS'correct'
p1460
aI1
aI4
aS'true'
p1461
aF4.397567516
aS'correct'
p1462
aI1
aI5
aS'true'
p1463
aF4.4223973
aS'correct'
p1464
aI1
aI6
aS'true'
p1465
aF4.509786454
aS'correct'
p1466
aI1
aI7
aS'true'
p1467
aF4.467820142
aS'correct'
p1468
aI1
aI8
aS'true'
p1469
aF4.449905725
aS'correct'
p1470
aI1
aI9
aS'true'
p1471
aF4.411209647
aS'correct'
p1472
aI1
aI10
aS'true'
p1473
aF4.282086719
aS'correct'
p1474
asS'../../c/ldv-regression/test_union.c_true-unreach-call.i'
p1475
(lp1476
I1
aI1
aS'true'
p1477
aF4.155696651
aS'correct'
p1478
aI1
aI2
aS'true'
p1479
aF4.221552846
aS'correct'
p1480
aI1
aI3
aS'true'
p1481
aF4.173849629
aS'correct'
p1482
aI1
aI4
aS'true'
p1483
aF4.12716798
aS'correct'
p1484
aI1
aI5
aS'true'
p1485
aF4.148529204
aS'correct'
p1486
aI1
aI6
aS'true'
p1487
aF4.678198781
aS'correct'
p1488
aI1
aI7
aS'true'
p1489
aF4.182337301
aS'correct'
p1490
aI1
aI8
aS'true'
p1491
aF4.298367864
aS'correct'
p1492
aI1
aI9
aS'true'
p1493
aF4.244772206
aS'correct'
p1494
aI1
aI10
aS'true'
p1495
aF4.299316304
aS'correct'
p1496
asS'../../c/list-properties/list_search_false-unreach-call_false-valid-memcleanup.i'
p1497
(lp1498
I1
aI1
aS'true'
p1499
aI500000000
aS'wrong'
p1500
aI1
aI2
aS'true'
p1501
aI500000000
aS'wrong'
p1502
aI1
aI3
aS'true'
p1503
aI500000000
aS'wrong'
p1504
aI1
aI4
aS'false(reach)'
p1505
aF7.149396439
aS'correct'
p1506
aI1
aI5
aS'false(reach)'
p1507
aF7.176038487
aS'correct'
p1508
aI1
aI6
aS'false(reach)'
p1509
aF6.927283087
aS'correct'
p1510
aI1
aI7
aS'false(reach)'
p1511
aF7.077804581
aS'correct'
p1512
aI1
aI8
aS'false(reach)'
p1513
aF7.290294999
aS'correct'
p1514
aI1
aI9
aS'false(reach)'
p1515
aF7.011292839
aS'correct'
p1516
aI1
aI10
aS'false(reach)'
p1517
aF7.030625726
aS'correct'
p1518
asS'../../c/forester-heap/dll-rb-cnstr_1_false-unreach-call_false-valid-deref.i'
p1519
(lp1520
I1
aI1
aS'false(reach)'
p1521
aF7.224236039
aS'correct'
p1522
aI1
aI2
aS'false(reach)'
p1523
aF7.189318722
aS'correct'
p1524
aI1
aI3
aS'false(reach)'
p1525
aF7.355922224
aS'correct'
p1526
aI1
aI4
aS'false(reach)'
p1527
aF7.328236482
aS'correct'
p1528
aI1
aI5
aS'false(reach)'
p1529
aF7.340133589
aS'correct'
p1530
aI1
aI6
aS'false(reach)'
p1531
aF7.091770092
aS'correct'
p1532
aI1
aI7
aS'false(reach)'
p1533
aF7.491862915
aS'correct'
p1534
aI1
aI8
aS'false(reach)'
p1535
aF7.347700512
aS'correct'
p1536
aI1
aI9
aS'false(reach)'
p1537
aF7.497370983
aS'correct'
p1538
aI1
aI10
aS'false(reach)'
p1539
aF7.289280352
aS'correct'
p1540
asS'../../c/forester-heap/dll-token_false-unreach-call_false-valid-memcleanup.i'
p1541
(lp1542
I1
aI1
aS'false(reach)'
p1543
aF5.781320078
aS'correct'
p1544
aI1
aI2
aS'false(reach)'
p1545
aF5.746299239
aS'correct'
p1546
aI1
aI3
aS'false(reach)'
p1547
aF5.812429327
aS'correct'
p1548
aI1
aI4
aS'false(reach)'
p1549
aF5.768180809
aS'correct'
p1550
aI1
aI5
aS'false(reach)'
p1551
aF5.940685237
aS'correct'
p1552
aI1
aI6
aS'false(reach)'
p1553
aF5.734259857
aS'correct'
p1554
aI1
aI7
aS'false(reach)'
p1555
aF5.811727402
aS'correct'
p1556
aI1
aI8
aS'false(reach)'
p1557
aF5.876903778
aS'correct'
p1558
aI1
aI9
aS'false(reach)'
p1559
aF5.838071787
aS'correct'
p1560
aI1
aI10
aS'false(reach)'
p1561
aF5.650534694
aS'correct'
p1562
asS'../../c/ldv-regression/test_union_cast-2_true-unreach-call.i'
p1563
(lp1564
I1
aI1
aS'true'
p1565
aF4.155568603
aS'correct'
p1566
aI1
aI2
aS'true'
p1567
aF4.142938421
aS'correct'
p1568
aI1
aI3
aS'true'
p1569
aF4.158135342
aS'correct'
p1570
aI1
aI4
aS'true'
p1571
aF4.248149481
aS'correct'
p1572
aI1
aI5
aS'true'
p1573
aF4.099785695
aS'correct'
p1574
aI1
aI6
aS'true'
p1575
aF4.205707502
aS'correct'
p1576
aI1
aI7
aS'true'
p1577
aF4.278851062
aS'correct'
p1578
aI1
aI8
aS'true'
p1579
aF4.260170741
aS'correct'
p1580
aI1
aI9
aS'true'
p1581
aF4.278358527
aS'correct'
p1582
aI1
aI10
aS'true'
p1583
aF4.254913785
aS'correct'
p1584
asS'../../c/list-properties/list_false-unreach-call_false-valid-memcleanup.i'
p1585
(lp1586
I1
aI1
aS'false(reach)'
p1587
aF5.754223935
aS'correct'
p1588
aI1
aI2
aS'false(reach)'
p1589
aF5.744248374
aS'correct'
p1590
aI1
aI3
aS'false(reach)'
p1591
aF5.951382361
aS'correct'
p1592
aI1
aI4
aS'false(reach)'
p1593
aF5.800335008
aS'correct'
p1594
aI1
aI5
aS'false(reach)'
p1595
aF5.80428571
aS'correct'
p1596
aI1
aI6
aS'false(reach)'
p1597
aF5.706665083
aS'correct'
p1598
aI1
aI7
aS'false(reach)'
p1599
aF5.719070846
aS'correct'
p1600
aI1
aI8
aS'false(reach)'
p1601
aF5.773989146
aS'correct'
p1602
aI1
aI9
aS'false(reach)'
p1603
aF5.777847893
aS'correct'
p1604
aI1
aI10
aS'false(reach)'
p1605
aF5.691316842
aS'correct'
p1606
asS'../../c/ldv-regression/test06_false-unreach-call.c'
p1607
(lp1608
I1
aI1
aS'false(reach)'
p1609
aF3.435228325
aS'correct'
p1610
aI1
aI2
aS'false(reach)'
p1611
aF3.505723161
aS'correct'
p1612
aI1
aI3
aS'false(reach)'
p1613
aF3.537891917
aS'correct'
p1614
aI1
aI4
aS'false(reach)'
p1615
aF3.561491769
aS'correct'
p1616
aI1
aI5
aS'false(reach)'
p1617
aF3.534297307
aS'correct'
p1618
aI1
aI6
aS'false(reach)'
p1619
aF3.612348436
aS'correct'
p1620
aI1
aI7
aS'false(reach)'
p1621
aF3.453139077
aS'correct'
p1622
aI1
aI8
aS'false(reach)'
p1623
aF3.651969532
aS'correct'
p1624
aI1
aI9
aS'false(reach)'
p1625
aF3.581957224
aS'correct'
p1626
aI1
aI10
aS'false(reach)'
p1627
aF3.529999924
aS'correct'
p1628
asS'../../c/ldv-regression/test15_true-unreach-call.c'
p1629
(lp1630
I1
aI1
aS'true'
p1631
aF4.212235928
aS'correct'
p1632
aI1
aI2
aS'true'
p1633
aF4.168016248
aS'correct'
p1634
aI1
aI3
aS'true'
p1635
aF4.228749243
aS'correct'
p1636
aI1
aI4
aS'true'
p1637
aF4.170123862
aS'correct'
p1638
aI1
aI5
aS'true'
p1639
aF4.34498697
aS'correct'
p1640
aI1
aI6
aS'true'
p1641
aF4.343171517
aS'correct'
p1642
aI1
aI7
aS'true'
p1643
aF4.361840743
aS'correct'
p1644
aI1
aI8
aS'true'
p1645
aF4.390421444
aS'correct'
p1646
aI1
aI9
aS'true'
p1647
aF4.24492209
aS'correct'
p1648
aI1
aI10
aS'true'
p1649
aF4.30045705
aS'correct'
p1650
asS'../../c/forester-heap/dll-simple-white-blue_true-unreach-call_false-valid-memtrack.i'
p1651
(lp1652
I1
aI1
aS'true'
p1653
aF6.816278671
aS'correct'
p1654
aI1
aI2
aS'true'
p1655
aF6.844955356
aS'correct'
p1656
aI1
aI3
aS'true'
p1657
aF7.185095352
aS'correct'
p1658
aI1
aI4
aS'true'
p1659
aF7.60425702
aS'correct'
p1660
aI1
aI5
aS'true'
p1661
aF8.771711722
aS'correct'
p1662
aI1
aI6
aS'true'
p1663
aF10.503936152
aS'correct'
p1664
aI1
aI7
aS'true'
p1665
aF13.329722823
aS'correct'
p1666
aI1
aI8
aS'true'
p1667
aF17.759327443
aS'correct'
p1668
aI1
aI9
aS'true'
p1669
aF23.643613028
aS'correct'
p1670
aI1
aI10
aS'true'
p1671
aF31.889071002
aS'correct'
p1672
asS'../../c/ldv-regression/test_union_cast.c_true-unreach-call_1.i'
p1673
(lp1674
I1
aI1
aS'true'
p1675
aF4.194068285
aS'correct'
p1676
aI1
aI2
aS'true'
p1677
aF4.148127993
aS'correct'
p1678
aI1
aI3
aS'true'
p1679
aF4.158828361
aS'correct'
p1680
aI1
aI4
aS'true'
p1681
aF4.198926495
aS'correct'
p1682
aI1
aI5
aS'true'
p1683
aF4.271068347
aS'correct'
p1684
aI1
aI6
aS'true'
p1685
aF4.171651015
aS'correct'
p1686
aI1
aI7
aS'true'
p1687
aF4.163834191
aS'correct'
p1688
aI1
aI8
aS'true'
p1689
aF4.293395516
aS'correct'
p1690
aI1
aI9
aS'true'
p1691
aF4.244304669
aS'correct'
p1692
aI1
aI10
aS'true'
p1693
aF4.244566968
aS'correct'
p1694
asS'../../c/heap-manipulation/tree_true-unreach-call.i'
p1695
(lp1696
I1
aI1
aS'true'
p1697
aF6.858464495
aS'correct'
p1698
aI1
aI2
aS'true'
p1699
aF8.932008555
aS'correct'
p1700
aI1
aI3
aS'true'
p1701
aF9.243546436
aS'correct'
p1702
aI1
aI4
aS'true'
p1703
aF9.709418088
aS'correct'
p1704
aI1
aI5
aS'true'
p1705
aF10.824566441
aS'correct'
p1706
aI1
aI6
aS'true'
p1707
aF13.320448785
aS'correct'
p1708
aI1
aI7
aS'true'
p1709
aF17.347410127
aS'correct'
p1710
aI1
aI8
aS'true'
p1711
aF23.825915533
aS'correct'
p1712
aI1
aI9
aS'true'
p1713
aF33.41388553
aS'correct'
p1714
aI1
aI10
aS'true'
p1715
aF49.019083776
aS'correct'
p1716
asS'../../c/ldv-regression/test18_true-unreach-call.c'
p1717
(lp1718
I1
aI1
aS'true'
p1719
aF4.421321849
aS'correct'
p1720
aI1
aI2
aS'true'
p1721
aF4.290303242
aS'correct'
p1722
aI1
aI3
aS'true'
p1723
aF4.290354036
aS'correct'
p1724
aI1
aI4
aS'true'
p1725
aF4.302018274
aS'correct'
p1726
aI1
aI5
aS'true'
p1727
aF4.162763033
aS'correct'
p1728
aI1
aI6
aS'true'
p1729
aF4.376074406
aS'correct'
p1730
aI1
aI7
aS'true'
p1731
aF4.310076941
aS'correct'
p1732
aI1
aI8
aS'true'
p1733
aF4.328159749
aS'correct'
p1734
aI1
aI9
aS'true'
p1735
aF4.284683769
aS'correct'
p1736
aI1
aI10
aS'true'
p1737
aF4.343483838
aS'correct'
p1738
asS'../../c/ldv-regression/alias_of_return_2.c_true-unreach-call_1.i'
p1739
(lp1740
I1
aI1
aS'true'
p1741
aF2.799196905
aS'correct'
p1742
aI1
aI2
aS'true'
p1743
aF2.844348917
aS'correct'
p1744
aI1
aI3
aS'true'
p1745
aF2.799950802
aS'correct'
p1746
aI1
aI4
aS'true'
p1747
aF2.794117873
aS'correct'
p1748
aI1
aI5
aS'true'
p1749
aF2.840651422
aS'correct'
p1750
aI1
aI6
aS'true'
p1751
aF2.818812702
aS'correct'
p1752
aI1
aI7
aS'true'
p1753
aF2.812033906
aS'correct'
p1754
aI1
aI8
aS'true'
p1755
aF2.816798063
aS'correct'
p1756
aI1
aI9
aS'true'
p1757
aF2.814121485
aS'correct'
p1758
aI1
aI10
aS'true'
p1759
aF2.830583955
aS'correct'
p1760
asS'../../c/ldv-regression/test12_false-unreach-call.c'
p1761
(lp1762
I1
aI1
aS'false(reach)'
p1763
aF3.477026465
aS'correct'
p1764
aI1
aI2
aS'false(reach)'
p1765
aF3.383257561
aS'correct'
p1766
aI1
aI3
aS'false(reach)'
p1767
aF3.395781171
aS'correct'
p1768
aI1
aI4
aS'false(reach)'
p1769
aF3.463635658
aS'correct'
p1770
aI1
aI5
aS'false(reach)'
p1771
aF3.460557501
aS'correct'
p1772
aI1
aI6
aS'false(reach)'
p1773
aF3.404424552
aS'correct'
p1774
aI1
aI7
aS'false(reach)'
p1775
aF3.462634548
aS'correct'
p1776
aI1
aI8
aS'false(reach)'
p1777
aF3.378575001
aS'correct'
p1778
aI1
aI9
aS'false(reach)'
p1779
aF3.46179517
aS'correct'
p1780
aI1
aI10
aS'false(reach)'
p1781
aF3.35279141
aS'correct'
p1782
asS'../../c/forester-heap/sll-token_false-unreach-call_false-valid-memcleanup.i'
p1783
(lp1784
I1
aI1
aS'false(reach)'
p1785
aF5.711884475
aS'correct'
p1786
aI1
aI2
aS'false(reach)'
p1787
aF5.652579122
aS'correct'
p1788
aI1
aI3
aS'false(reach)'
p1789
aF5.687604954
aS'correct'
p1790
aI1
aI4
aS'false(reach)'
p1791
aF5.662367962
aS'correct'
p1792
aI1
aI5
aS'false(reach)'
p1793
aF5.959424463
aS'correct'
p1794
aI1
aI6
aS'false(reach)'
p1795
aF5.845010245
aS'correct'
p1796
aI1
aI7
aS'false(reach)'
p1797
aF5.959759309
aS'correct'
p1798
aI1
aI8
aS'false(reach)'
p1799
aF5.82531002
aS'correct'
p1800
aI1
aI9
aS'false(reach)'
p1801
aF5.912450675
aS'correct'
p1802
aI1
aI10
aS'false(reach)'
p1803
aF5.623885662
aS'correct'
p1804
asS'../../c/forester-heap/dll-simple-white-blue_false-unreach-call_false-valid-memcleanup.i'
p1805
(lp1806
I1
aI1
aS'false(reach)'
p1807
aF5.767147822
aS'correct'
p1808
aI1
aI2
aS'false(reach)'
p1809
aF5.904461108
aS'correct'
p1810
aI1
aI3
aS'false(reach)'
p1811
aF5.804037994
aS'correct'
p1812
aI1
aI4
aS'false(reach)'
p1813
aF5.691783802
aS'correct'
p1814
aI1
aI5
aS'false(reach)'
p1815
aF5.911024667
aS'correct'
p1816
aI1
aI6
aS'false(reach)'
p1817
aF6.101710928
aS'correct'
p1818
aI1
aI7
aS'false(reach)'
p1819
aF5.855291559
aS'correct'
p1820
aI1
aI8
aS'false(reach)'
p1821
aF5.923634661
aS'correct'
p1822
aI1
aI9
aS'false(reach)'
p1823
aF5.807077327
aS'correct'
p1824
aI1
aI10
aS'false(reach)'
p1825
aF5.962313638
aS'correct'
p1826
asS'../../c/ldv-regression/test11_true-unreach-call.c'
p1827
(lp1828
I1
aI1
aS'true'
p1829
aF7.28231443
aS'correct'
p1830
aI1
aI2
aS'true'
p1831
aF7.294507243
aS'correct'
p1832
aI1
aI3
aS'true'
p1833
aF7.270880126
aS'correct'
p1834
aI1
aI4
aS'true'
p1835
aF7.443746275
aS'correct'
p1836
aI1
aI5
aS'true'
p1837
aF7.232100858
aS'correct'
p1838
aI1
aI6
aS'true'
p1839
aF7.473878547
aS'correct'
p1840
aI1
aI7
aS'true'
p1841
aF7.285322395
aS'correct'
p1842
aI1
aI8
aS'true'
p1843
aF7.420818966
aS'correct'
p1844
aI1
aI9
aS'true'
p1845
aF7.469220888
aS'correct'
p1846
aI1
aI10
aS'true'
p1847
aF7.178833818
aS'correct'
p1848
asS'../../c/ldv-regression/test_while_int.c_false-unreach-call.i'
p1849
(lp1850
I1
aI1
aS'true'
p1851
aI500000000
aS'wrong'
p1852
aI1
aI2
aS'true'
p1853
aI500000000
aS'wrong'
p1854
aI1
aI3
aS'false(reach)'
p1855
aF3.687486389
aS'correct'
p1856
aI1
aI4
aS'false(reach)'
p1857
aF3.737431776
aS'correct'
p1858
aI1
aI5
aS'false(reach)'
p1859
aF3.777020662
aS'correct'
p1860
aI1
aI6
aS'false(reach)'
p1861
aF3.714764583
aS'correct'
p1862
aI1
aI7
aS'false(reach)'
p1863
aF3.713847781
aS'correct'
p1864
aI1
aI8
aS'false(reach)'
p1865
aF3.71168817
aS'correct'
p1866
aI1
aI9
aS'false(reach)'
p1867
aF3.785061782
aS'correct'
p1868
aI1
aI10
aS'false(reach)'
p1869
aF3.796253371
aS'correct'
p1870
asS'../../c/ddv-machzwd/ddv_machzwd_pthread_mutex_unlock_true-unreach-call_false-valid-memtrack.i'
p1871
(lp1872
I1
aI1
aS'true'
p1873
aF6.978896043
aS'correct'
p1874
aI1
aI2
aS'true'
p1875
aF6.963847577
aS'correct'
p1876
aI1
aI3
aS'true'
p1877
aF7.030716155
aS'correct'
p1878
aI1
aI4
aS'true'
p1879
aF7.065236946
aS'correct'
p1880
aI1
aI5
aS'true'
p1881
aF7.00536946
aS'correct'
p1882
aI1
aI6
aS'true'
p1883
aF6.864642586
aS'correct'
p1884
aI1
aI7
aS'true'
p1885
aF7.054382583
aS'correct'
p1886
aI1
aI8
aS'true'
p1887
aF7.147053248
aS'correct'
p1888
aI1
aI9
aS'true'
p1889
aF7.099677401
aS'correct'
p1890
aI1
aI10
aS'true'
p1891
aF6.975604986
aS'correct'
p1892
asS'../../c/ldv-regression/test03_true-unreach-call.c'
p1893
(lp1894
I1
aI1
aS'true'
p1895
aF4.215596111
aS'correct'
p1896
aI1
aI2
aS'true'
p1897
aF4.196393885
aS'correct'
p1898
aI1
aI3
aS'true'
p1899
aF4.185765009
aS'correct'
p1900
aI1
aI4
aS'true'
p1901
aF4.286631777
aS'correct'
p1902
aI1
aI5
aS'true'
p1903
aF4.287454067
aS'correct'
p1904
aI1
aI6
aS'true'
p1905
aF4.171902283
aS'correct'
p1906
aI1
aI7
aS'true'
p1907
aF4.211311195
aS'correct'
p1908
aI1
aI8
aS'true'
p1909
aF4.223468975
aS'correct'
p1910
aI1
aI9
aS'true'
p1911
aF4.250499333
aS'correct'
p1912
aI1
aI10
aS'true'
p1913
aF4.260043183
aS'correct'
p1914
asS'../../c/forester-heap/sll-buckets_false-unreach-call_false-valid-memcleanup.i'
p1915
(lp1916
I1
aI1
aS'false(reach)'
p1917
aF7.918692868
aS'correct'
p1918
aI1
aI2
aS'false(reach)'
p1919
aF7.755092398
aS'correct'
p1920
aI1
aI3
aS'false(reach)'
p1921
aF7.720632116
aS'correct'
p1922
aI1
aI4
aS'false(reach)'
p1923
aF7.796619105
aS'correct'
p1924
aI1
aI5
aS'false(reach)'
p1925
aF7.927940191
aS'correct'
p1926
aI1
aI6
aS'false(reach)'
p1927
aF7.877297088
aS'correct'
p1928
aI1
aI7
aS'false(reach)'
p1929
aF7.929403017
aS'correct'
p1930
aI1
aI8
aS'false(reach)'
p1931
aF8.141953484
aS'correct'
p1932
aI1
aI9
aS'false(reach)'
p1933
aF7.890163225
aS'correct'
p1934
aI1
aI10
aS'false(reach)'
p1935
aF7.756585949
aS'correct'
p1936
asS'../../c/forester-heap/dll-rb-cnstr_1_true-unreach-call_true-valid-memsafety.i'
p1937
(lp1938
I1
aI1
aS'true'
p1939
aF8.339505796
aS'correct'
p1940
aI1
aI2
aS'true'
p1941
aF8.393847029
aS'correct'
p1942
aI1
aI3
aS'true'
p1943
aF9.107665531
aS'correct'
p1944
aI1
aI4
aS'true'
p1945
aF10.421346293
aS'correct'
p1946
aI1
aI5
aS'true'
p1947
aF15.053342757
aS'correct'
p1948
aI1
aI6
aS'true'
p1949
aF25.752487355
aS'correct'
p1950
aI1
aI7
aS'true'
p1951
aF62.833934679
aS'correct'
p1952
aI1
aI8
aS'true'
p1953
aF178.012802227
aS'correct'
p1954
aI1
aI9
aS'true'
p1955
aF512.991638374
aS'correct'
p1956
aI1
aI10
aS'TIMEOUT'
p1957
aI500000000
aS'error'
p1958
asS'../../c/ldv-regression/test_overflow.c_true-unreach-call.i'
p1959
(lp1960
I1
aI1
aS'true'
p1961
aF4.273811022
aS'correct'
p1962
aI1
aI2
aS'true'
p1963
aF4.306547076
aS'correct'
p1964
aI1
aI3
aS'true'
p1965
aF4.370517067
aS'correct'
p1966
aI1
aI4
aS'true'
p1967
aF4.347329546
aS'correct'
p1968
aI1
aI5
aS'true'
p1969
aF4.242090371
aS'correct'
p1970
aI1
aI6
aS'true'
p1971
aF4.279849541
aS'correct'
p1972
aI1
aI7
aS'true'
p1973
aF4.371900266
aS'correct'
p1974
aI1
aI8
aS'true'
p1975
aF4.277102509
aS'correct'
p1976
aI1
aI9
aS'true'
p1977
aF4.321307252
aS'correct'
p1978
aI1
aI10
aS'true'
p1979
aF4.3889411
aS'correct'
p1980
asS'../../c/heap-manipulation/dancing_true-unreach-call_false-valid-memtrack.i'
p1981
(lp1982
I1
aI1
aS'true'
p1983
aF3.415273169
aS'correct'
p1984
aI1
aI2
aS'true'
p1985
aF9.532959171
aS'correct'
p1986
aI1
aI3
aS'true'
p1987
aF9.365160395
aS'correct'
p1988
aI1
aI4
aS'true'
p1989
aF9.423578666
aS'correct'
p1990
aI1
aI5
aS'true'
p1991
aF9.782962953
aS'correct'
p1992
aI1
aI6
aS'true'
p1993
aF10.381258056
aS'correct'
p1994
aI1
aI7
aS'true'
p1995
aF10.554336877
aS'correct'
p1996
aI1
aI8
aS'true'
p1997
aF11.087492773
aS'correct'
p1998
aI1
aI9
aS'true'
p1999
aF11.946412008
aS'correct'
p2000
aI1
aI10
aS'true'
p2001
aF12.797157004
aS'correct'
p2002
asS'../../c/ldv-regression/test07_true-unreach-call.c'
p2003
(lp2004
I1
aI1
aS'true'
p2005
aF5.554314212
aS'correct'
p2006
aI1
aI2
aS'true'
p2007
aF5.6304861
aS'correct'
p2008
aI1
aI3
aS'true'
p2009
aF5.538233654
aS'correct'
p2010
aI1
aI4
aS'true'
p2011
aF5.566147689
aS'correct'
p2012
aI1
aI5
aS'true'
p2013
aF5.587122796
aS'correct'
p2014
aI1
aI6
aS'true'
p2015
aF5.542239948
aS'correct'
p2016
aI1
aI7
aS'true'
p2017
aF5.593929258
aS'correct'
p2018
aI1
aI8
aS'true'
p2019
aF5.591431892
aS'correct'
p2020
aI1
aI9
aS'true'
p2021
aF5.68248655
aS'correct'
p2022
aI1
aI10
aS'true'
p2023
aF5.58429219
aS'correct'
p2024
asS'../../c/ldv-regression/test22_true-unreach-call.c'
p2025
(lp2026
I1
aI1
aS'true'
p2027
aF4.981721317
aS'correct'
p2028
aI1
aI2
aS'true'
p2029
aF4.986557253
aS'correct'
p2030
aI1
aI3
aS'true'
p2031
aF4.945118413
aS'correct'
p2032
aI1
aI4
aS'true'
p2033
aF4.940667677
aS'correct'
p2034
aI1
aI5
aS'true'
p2035
aF5.029661094
aS'correct'
p2036
aI1
aI6
aS'true'
p2037
aF5.010366654
aS'correct'
p2038
aI1
aI7
aS'true'
p2039
aF5.147713119
aS'correct'
p2040
aI1
aI8
aS'true'
p2041
aF5.16928174
aS'correct'
p2042
aI1
aI9
aS'true'
p2043
aF5.196078851
aS'correct'
p2044
aI1
aI10
aS'true'
p2045
aF5.242207899
aS'correct'
p2046
asS'../../c/ldv-regression/nested_structure_noptr_true-unreach-call.i'
p2047
(lp2048
I1
aI1
aS'true'
p2049
aF4.204622965
aS'correct'
p2050
aI1
aI2
aS'true'
p2051
aF4.232745458
aS'correct'
p2052
aI1
aI3
aS'true'
p2053
aF4.171986032
aS'correct'
p2054
aI1
aI4
aS'true'
p2055
aF4.246229236
aS'correct'
p2056
aI1
aI5
aS'true'
p2057
aF4.314782471
aS'correct'
p2058
aI1
aI6
aS'true'
p2059
aF4.324826938
aS'correct'
p2060
aI1
aI7
aS'true'
p2061
aF4.239468298
aS'correct'
p2062
aI1
aI8
aS'true'
p2063
aF4.231089637
aS'correct'
p2064
aI1
aI9
aS'true'
p2065
aF4.239820585
aS'correct'
p2066
aI1
aI10
aS'true'
p2067
aF4.269763447
aS'correct'
p2068
asS'../../c/forester-heap/dll-sorted_true-unreach-call_true-valid-memsafety.i'
p2069
(lp2070
I1
aI1
aS'true'
p2071
aF3.741941085
aS'correct'
p2072
aI1
aI2
aS'true'
p2073
aF9.191515471
aS'correct'
p2074
aI1
aI3
aS'true'
p2075
aF9.552855436
aS'correct'
p2076
aI1
aI4
aS'true'
p2077
aF11.926891464
aS'correct'
p2078
aI1
aI5
aS'true'
p2079
aF18.376577301
aS'correct'
p2080
aI1
aI6
aS'true'
p2081
aF32.712949609
aS'correct'
p2082
aI1
aI7
aS'true'
p2083
aF66.801730695
aS'correct'
p2084
aI1
aI8
aS'true'
p2085
aF136.598772169
aS'correct'
p2086
aI1
aI9
aS'true'
p2087
aF271.25210111
aS'correct'
p2088
aI1
aI10
aS'true'
p2089
aF510.905154446
aS'correct'
p2090
asS'../../c/ldv-regression/test29_false-unreach-call.c'
p2091
(lp2092
I1
aI1
aS'false(reach)'
p2093
aF4.816824761
aS'correct'
p2094
aI1
aI2
aS'false(reach)'
p2095
aF4.965199807
aS'correct'
p2096
aI1
aI3
aS'false(reach)'
p2097
aF4.877679995
aS'correct'
p2098
aI1
aI4
aS'false(reach)'
p2099
aF4.80307429
aS'correct'
p2100
aI1
aI5
aS'false(reach)'
p2101
aF4.877955506
aS'correct'
p2102
aI1
aI6
aS'false(reach)'
p2103
aF4.953314654
aS'correct'
p2104
aI1
aI7
aS'false(reach)'
p2105
aF4.973468317
aS'correct'
p2106
aI1
aI8
aS'false(reach)'
p2107
aF5.018131869
aS'correct'
p2108
aI1
aI9
aS'false(reach)'
p2109
aF4.929016349
aS'correct'
p2110
aI1
aI10
aS'false(reach)'
p2111
aF4.790561143
aS'correct'
p2112
asS'../../c/ldv-regression/test04_true-unreach-call.c'
p2113
(lp2114
I1
aI1
aS'true'
p2115
aF4.131574155
aS'correct'
p2116
aI1
aI2
aS'true'
p2117
aF4.171211174
aS'correct'
p2118
aI1
aI3
aS'true'
p2119
aF4.176623999
aS'correct'
p2120
aI1
aI4
aS'true'
p2121
aF4.215321233
aS'correct'
p2122
aI1
aI5
aS'true'
p2123
aF4.156342524
aS'correct'
p2124
aI1
aI6
aS'true'
p2125
aF4.345698903
aS'correct'
p2126
aI1
aI7
aS'true'
p2127
aF4.298086022
aS'correct'
p2128
aI1
aI8
aS'true'
p2129
aF4.334786695
aS'correct'
p2130
aI1
aI9
aS'true'
p2131
aF4.20905203
aS'correct'
p2132
aI1
aI10
aS'true'
p2133
aF4.161631687
aS'correct'
p2134
asS'../../c/ldv-regression/test_address.c_true-unreach-call.i'
p2135
(lp2136
I1
aI1
aS'true'
p2137
aF4.224819962
aS'correct'
p2138
aI1
aI2
aS'true'
p2139
aF4.18517704
aS'correct'
p2140
aI1
aI3
aS'true'
p2141
aF4.214366238
aS'correct'
p2142
aI1
aI4
aS'true'
p2143
aF4.156918718
aS'correct'
p2144
aI1
aI5
aS'true'
p2145
aF4.187667112
aS'correct'
p2146
aI1
aI6
aS'true'
p2147
aF4.264973463
aS'correct'
p2148
aI1
aI7
aS'true'
p2149
aF4.313393533
aS'correct'
p2150
aI1
aI8
aS'true'
p2151
aF4.217855199
aS'correct'
p2152
aI1
aI9
aS'true'
p2153
aF4.223606772
aS'correct'
p2154
aI1
aI10
aS'true'
p2155
aF4.122233232
aS'correct'
p2156
asS'../../c/ddv-machzwd/ddv_machzwd_inb_p_true-unreach-call_false-valid-memtrack.i'
p2157
(lp2158
I1
aI1
aS'true'
p2159
aF6.959757628
aS'correct'
p2160
aI1
aI2
aS'true'
p2161
aF7.030488175
aS'correct'
p2162
aI1
aI3
aS'true'
p2163
aF6.97625065
aS'correct'
p2164
aI1
aI4
aS'true'
p2165
aF7.095731498
aS'correct'
p2166
aI1
aI5
aS'true'
p2167
aF6.890266141
aS'correct'
p2168
aI1
aI6
aS'true'
p2169
aF6.973255474
aS'correct'
p2170
aI1
aI7
aS'true'
p2171
aF6.993674017
aS'correct'
p2172
aI1
aI8
aS'true'
p2173
aF7.151356007
aS'correct'
p2174
aI1
aI9
aS'true'
p2175
aF7.099560139
aS'correct'
p2176
aI1
aI10
aS'true'
p2177
aF6.871332557
aS'correct'
p2178
asS'../../c/ddv-machzwd/ddv_machzwd_inb_true-unreach-call_false-valid-memtrack.i'
p2179
(lp2180
I1
aI1
aS'true'
p2181
aF6.953680313
aS'correct'
p2182
aI1
aI2
aS'true'
p2183
aF6.98093
aS'correct'
p2184
aI1
aI3
aS'true'
p2185
aF7.114771768
aS'correct'
p2186
aI1
aI4
aS'true'
p2187
aF7.129399464
aS'correct'
p2188
aI1
aI5
aS'true'
p2189
aF7.055806901
aS'correct'
p2190
aI1
aI6
aS'true'
p2191
aF6.873200159
aS'correct'
p2192
aI1
aI7
aS'true'
p2193
aF6.996234761
aS'correct'
p2194
aI1
aI8
aS'true'
p2195
aF7.206020529
aS'correct'
p2196
aI1
aI9
aS'true'
p2197
aF6.986559809
aS'correct'
p2198
aI1
aI10
aS'true'
p2199
aF7.16716066
aS'correct'
p2200
asS'../../c/forester-heap/dll-queue_false-unreach-call_false-valid-memcleanup.i'
p2201
(lp2202
I1
aI1
aS'true'
p2203
aI500000000
aS'wrong'
p2204
aI1
aI2
aS'true'
p2205
aI500000000
aS'wrong'
p2206
aI1
aI3
aS'false(reach)'
p2207
aF7.834168834
aS'correct'
p2208
aI1
aI4
aS'false(reach)'
p2209
aF7.811262807
aS'correct'
p2210
aI1
aI5
aS'false(reach)'
p2211
aF7.969399427
aS'correct'
p2212
aI1
aI6
aS'false(reach)'
p2213
aF7.682475353
aS'correct'
p2214
aI1
aI7
aS'false(reach)'
p2215
aF7.889654932
aS'correct'
p2216
aI1
aI8
aS'false(reach)'
p2217
aF7.901649239
aS'correct'
p2218
aI1
aI9
aS'false(reach)'
p2219
aF7.955207498
aS'correct'
p2220
aI1
aI10
aS'false(reach)'
p2221
aF8.00009697
aS'correct'
p2222
asS'../../c/ddv-machzwd/ddv_machzwd_outb_p_true-unreach-call_false-valid-memtrack.i'
p2223
(lp2224
I1
aI1
aS'true'
p2225
aF7.076061314
aS'correct'
p2226
aI1
aI2
aS'true'
p2227
aF7.791010114
aS'correct'
p2228
aI1
aI3
aS'true'
p2229
aF7.058105913
aS'correct'
p2230
aI1
aI4
aS'true'
p2231
aF6.896826282
aS'correct'
p2232
aI1
aI5
aS'true'
p2233
aF6.911100552
aS'correct'
p2234
aI1
aI6
aS'true'
p2235
aF7.007011025
aS'correct'
p2236
aI1
aI7
aS'true'
p2237
aF6.974457382
aS'correct'
p2238
aI1
aI8
aS'true'
p2239
aF7.132689811
aS'correct'
p2240
aI1
aI9
aS'true'
p2241
aF7.076202811
aS'correct'
p2242
aI1
aI10
aS'true'
p2243
aF6.853459063
aS'correct'
p2244
asS'../../c/forester-heap/dll-circular_false-unreach-call_false-valid-memcleanup.i'
p2245
(lp2246
I1
aI1
aS'false(reach)'
p2247
aF5.820815738
aS'correct'
p2248
aI1
aI2
aS'false(reach)'
p2249
aF5.725992552
aS'correct'
p2250
aI1
aI3
aS'false(reach)'
p2251
aF5.814294066
aS'correct'
p2252
aI1
aI4
aS'false(reach)'
p2253
aF5.965515393
aS'correct'
p2254
aI1
aI5
aS'false(reach)'
p2255
aF5.834279309
aS'correct'
p2256
aI1
aI6
aS'false(reach)'
p2257
aF6.988537882
aS'correct'
p2258
aI1
aI7
aS'false(reach)'
p2259
aF5.92470942
aS'correct'
p2260
aI1
aI8
aS'false(reach)'
p2261
aF5.769411596
aS'correct'
p2262
aI1
aI9
aS'false(reach)'
p2263
aF5.911239417
aS'correct'
p2264
aI1
aI10
aS'false(reach)'
p2265
aF5.867502659
aS'correct'
p2266
asS'../../c/ldv-regression/test19_true-unreach-call.c'
p2267
(lp2268
I1
aI1
aS'true'
p2269
aF4.427603658
aS'correct'
p2270
aI1
aI2
aS'true'
p2271
aF4.301423105
aS'correct'
p2272
aI1
aI3
aS'true'
p2273
aF4.355128343
aS'correct'
p2274
aI1
aI4
aS'true'
p2275
aF4.290448456
aS'correct'
p2276
aI1
aI5
aS'true'
p2277
aF4.37483875
aS'correct'
p2278
aI1
aI6
aS'true'
p2279
aF4.284058255
aS'correct'
p2280
aI1
aI7
aS'true'
p2281
aF5.338816954
aS'correct'
p2282
aI1
aI8
aS'true'
p2283
aF4.415385571
aS'correct'
p2284
aI1
aI9
aS'true'
p2285
aF4.493263675
aS'correct'
p2286
aI1
aI10
aS'true'
p2287
aF4.358765705
aS'correct'
p2288
asS'../../c/ldv-regression/test23_true-unreach-call.c'
p2289
(lp2290
I1
aI1
aS'true'
p2291
aF4.978457539
aS'correct'
p2292
aI1
aI2
aS'true'
p2293
aF5.001210071
aS'correct'
p2294
aI1
aI3
aS'true'
p2295
aF5.077550022
aS'correct'
p2296
aI1
aI4
aS'true'
p2297
aF5.081296807
aS'correct'
p2298
aI1
aI5
aS'true'
p2299
aF5.218109234
aS'correct'
p2300
aI1
aI6
aS'true'
p2301
aF5.336952445
aS'correct'
p2302
aI1
aI7
aS'true'
p2303
aF5.393610377
aS'correct'
p2304
aI1
aI8
aS'true'
p2305
aF5.40092298
aS'correct'
p2306
aI1
aI9
aS'true'
p2307
aF5.343226885
aS'correct'
p2308
aI1
aI10
aS'true'
p2309
aF5.375983078
aS'correct'
p2310
asS'../../c/forester-heap/sll-token_true-unreach-call_true-valid-memsafety.i'
p2311
(lp2312
I1
aI1
aS'true'
p2313
aF8.187018188
aS'correct'
p2314
aI1
aI2
aS'true'
p2315
aF8.337915122
aS'correct'
p2316
aI1
aI3
aS'true'
p2317
aF8.669610969
aS'correct'
p2318
aI1
aI4
aS'true'
p2319
aF8.705374334
aS'correct'
p2320
aI1
aI5
aS'true'
p2321
aF9.453292555
aS'correct'
p2322
aI1
aI6
aS'true'
p2323
aF10.02732341
aS'correct'
p2324
aI1
aI7
aS'true'
p2325
aF12.406901554
aS'correct'
p2326
aI1
aI8
aS'true'
p2327
aF13.50725116
aS'correct'
p2328
aI1
aI9
aS'true'
p2329
aF14.418601899
aS'correct'
p2330
aI1
aI10
aS'true'
p2331
aF16.871351898
aS'correct'
p2332
asS'../../c/ldv-regression/rule60_list2.c_false-unreach-call_1.i'
p2333
(lp2334
I1
aI1
aS'false(reach)'
p2335
aF6.560314691
aS'correct'
p2336
aI1
aI2
aS'false(reach)'
p2337
aF7.423397023
aS'correct'
p2338
aI1
aI3
aS'false(reach)'
p2339
aF6.694576792
aS'correct'
p2340
aI1
aI4
aS'false(reach)'
p2341
aF6.657410681
aS'correct'
p2342
aI1
aI5
aS'false(reach)'
p2343
aF6.732153341
aS'correct'
p2344
aI1
aI6
aS'false(reach)'
p2345
aF6.619433801
aS'correct'
p2346
aI1
aI7
aS'false(reach)'
p2347
aF6.820272209
aS'correct'
p2348
aI1
aI8
aS'false(reach)'
p2349
aF6.712501908
aS'correct'
p2350
aI1
aI9
aS'false(reach)'
p2351
aF6.766958422
aS'correct'
p2352
aI1
aI10
aS'false(reach)'
p2353
aF6.646411332
aS'correct'
p2354
asS'../../c/ldv-regression/oomInt.c_true-unreach-call.i'
p2355
(lp2356
I1
aI1
aS'true'
p2357
aF4.236607586
aS'correct'
p2358
aI1
aI2
aS'true'
p2359
aF4.25494317
aS'correct'
p2360
aI1
aI3
aS'true'
p2361
aF4.249287845
aS'correct'
p2362
aI1
aI4
aS'true'
p2363
aF4.107262308
aS'correct'
p2364
aI1
aI5
aS'true'
p2365
aF4.187609605
aS'correct'
p2366
aI1
aI6
aS'true'
p2367
aF4.14424942
aS'correct'
p2368
aI1
aI7
aS'true'
p2369
aF4.215049629
aS'correct'
p2370
aI1
aI8
aS'true'
p2371
aF4.185513277
aS'correct'
p2372
aI1
aI9
aS'true'
p2373
aF4.283422872
aS'correct'
p2374
aI1
aI10
aS'true'
p2375
aF4.206470107
aS'correct'
p2376
asS'../../c/ldv-regression/test_malloc-1_true-unreach-call.i'
p2377
(lp2378
I1
aI1
aS'true'
p2379
aF4.179349216
aS'correct'
p2380
aI1
aI2
aS'true'
p2381
aF4.288926799
aS'correct'
p2382
aI1
aI3
aS'true'
p2383
aF4.226049085
aS'correct'
p2384
aI1
aI4
aS'true'
p2385
aF4.294858573
aS'correct'
p2386
aI1
aI5
aS'true'
p2387
aF4.178898537
aS'correct'
p2388
aI1
aI6
aS'true'
p2389
aF4.25248127
aS'correct'
p2390
aI1
aI7
aS'true'
p2391
aF4.202575891
aS'correct'
p2392
aI1
aI8
aS'true'
p2393
aF4.337042419
aS'correct'
p2394
aI1
aI9
aS'true'
p2395
aF4.31851976
aS'correct'
p2396
aI1
aI10
aS'true'
p2397
aF4.323301977
aS'correct'
p2398
asS'../../c/list-ext2-properties/list_and_tree_cnstr_true-unreach-call.i'
p2399
(lp2400
I1
aI1
aS'true'
p2401
aF6.11077311
aS'correct'
p2402
aI1
aI2
aS'true'
p2403
aF6.281234695
aS'correct'
p2404
aI1
aI3
aS'true'
p2405
aF6.857413994
aS'correct'
p2406
aI1
aI4
aS'true'
p2407
aF8.628286274
aS'correct'
p2408
aI1
aI5
aS'true'
p2409
aF14.186938439
aS'correct'
p2410
aI1
aI6
aS'true'
p2411
aF31.302073101
aS'correct'
p2412
aI1
aI7
aS'true'
p2413
aF78.259570501
aS'correct'
p2414
aI1
aI8
aS'true'
p2415
aF154.883951118
aS'correct'
p2416
aI1
aI9
aS'true'
p2417
aF375.872598134
aS'correct'
p2418
aI1
aI10
aS'TIMEOUT'
p2419
aI500000000
aS'error'
p2420
asS'../../c/forester-heap/sll-queue_true-unreach-call_true-valid-memsafety.i'
p2421
(lp2422
I1
aI1
aS'true'
p2423
aF6.761922713
aS'correct'
p2424
aI1
aI2
aS'true'
p2425
aF6.950258669
aS'correct'
p2426
aI1
aI3
aS'true'
p2427
aF7.078049352
aS'correct'
p2428
aI1
aI4
aS'true'
p2429
aF7.179796495
aS'correct'
p2430
aI1
aI5
aS'true'
p2431
aF7.938193187
aS'correct'
p2432
aI1
aI6
aS'true'
p2433
aF8.814737794
aS'correct'
p2434
aI1
aI7
aS'true'
p2435
aF9.864939893
aS'correct'
p2436
aI1
aI8
aS'true'
p2437
aF11.029070973
aS'correct'
p2438
aI1
aI9
aS'true'
p2439
aF12.957502323
aS'correct'
p2440
aI1
aI10
aS'true'
p2441
aF15.645853751
aS'correct'
p2442
asS'../../c/ldv-regression/alt_test.c_false-unreach-call.i'
p2443
(lp2444
I1
aI1
aS'false(reach)'
p2445
aF5.013588354
aS'correct'
p2446
aI1
aI2
aS'false(reach)'
p2447
aF4.927983588
aS'correct'
p2448
aI1
aI3
aS'false(reach)'
p2449
aF4.923646465
aS'correct'
p2450
aI1
aI4
aS'false(reach)'
p2451
aF4.874166475
aS'correct'
p2452
aI1
aI5
aS'false(reach)'
p2453
aF4.849688965
aS'correct'
p2454
aI1
aI6
aS'false(reach)'
p2455
aF5.054706766
aS'correct'
p2456
aI1
aI7
aS'false(reach)'
p2457
aF4.948877028
aS'correct'
p2458
aI1
aI8
aS'false(reach)'
p2459
aF4.856141458
aS'correct'
p2460
aI1
aI9
aS'false(reach)'
p2461
aF5.029977412
aS'correct'
p2462
aI1
aI10
aS'false(reach)'
p2463
aF4.786316758
aS'correct'
p2464
asS'../../c/forester-heap/sll-optional_true-unreach-call_true-valid-memsafety.i'
p2465
(lp2466
I1
aI1
aS'true'
p2467
aF7.054406107
aS'correct'
p2468
aI1
aI2
aS'true'
p2469
aF9.25007807
aS'correct'
p2470
aI1
aI3
aS'true'
p2471
aF11.032757039
aS'correct'
p2472
aI1
aI4
aS'true'
p2473
aF16.512732401
aS'correct'
p2474
aI1
aI5
aS'true'
p2475
aF41.178979025
aS'correct'
p2476
aI1
aI6
aS'true'
p2477
aF153.320380142
aS'correct'
p2478
aI1
aI7
aS'true'
p2479
aF621.277418318
aS'correct'
p2480
aI1
aI8
aS'TIMEOUT'
p2481
aI500000000
aS'error'
p2482
aI1
aI9
aS'TIMEOUT'
p2483
aI500000000
aS'error'
p2484
aI1
aI10
aS'TIMEOUT'
p2485
aI500000000
aS'error'
p2486
asS'../../c/forester-heap/sll-circular_false-unreach-call_false-valid-memcleanup.i'
p2487
(lp2488
I1
aI1
aS'false(reach)'
p2489
aF5.675944247
aS'correct'
p2490
aI1
aI2
aS'false(reach)'
p2491
aF5.753235658
aS'correct'
p2492
aI1
aI3
aS'false(reach)'
p2493
aF5.71370607
aS'correct'
p2494
aI1
aI4
aS'false(reach)'
p2495
aF5.670820698
aS'correct'
p2496
aI1
aI5
aS'false(reach)'
p2497
aF5.612839515
aS'correct'
p2498
aI1
aI6
aS'false(reach)'
p2499
aF5.642427849
aS'correct'
p2500
aI1
aI7
aS'false(reach)'
p2501
aF5.770408336
aS'correct'
p2502
aI1
aI8
aS'false(reach)'
p2503
aF5.797976719
aS'correct'
p2504
aI1
aI9
aS'false(reach)'
p2505
aF5.726616714
aS'correct'
p2506
aI1
aI10
aS'false(reach)'
p2507
aF5.703417619
aS'correct'
p2508
asS'../../c/list-ext-properties/list-ext_flag_false-unreach-call_false-valid-deref.i'
p2509
(lp2510
I1
aI1
aS'true'
p2511
aI500000000
aS'wrong'
p2512
aI1
aI2
aS'true'
p2513
aI500000000
aS'wrong'
p2514
aI1
aI3
aS'true'
p2515
aI500000000
aS'wrong'
p2516
aI1
aI4
aS'true'
p2517
aI500000000
aS'wrong'
p2518
aI1
aI5
aS'true'
p2519
aI500000000
aS'wrong'
p2520
aI1
aI6
aS'true'
p2521
aI500000000
aS'wrong'
p2522
aI1
aI7
aS'true'
p2523
aI500000000
aS'wrong'
p2524
aI1
aI8
aS'true'
p2525
aI500000000
aS'wrong'
p2526
aI1
aI9
aS'true'
p2527
aI500000000
aS'wrong'
p2528
aI1
aI10
aS'true'
p2529
aI500000000
aS'wrong'
p2530
asS'../../c/forester-heap/sll-simple-white-blue_false-unreach-call_false-valid-memcleanup.i'
p2531
(lp2532
I1
aI1
aS'false(reach)'
p2533
aF5.65606833
aS'correct'
p2534
aI1
aI2
aS'false(reach)'
p2535
aF5.770830044
aS'correct'
p2536
aI1
aI3
aS'false(reach)'
p2537
aF5.721590994
aS'correct'
p2538
aI1
aI4
aS'false(reach)'
p2539
aF5.778770973
aS'correct'
p2540
aI1
aI5
aS'false(reach)'
p2541
aF5.858696877
aS'correct'
p2542
aI1
aI6
aS'false(reach)'
p2543
aF5.902389982
aS'correct'
p2544
aI1
aI7
aS'false(reach)'
p2545
aF5.959109833
aS'correct'
p2546
aI1
aI8
aS'false(reach)'
p2547
aF5.740986654
aS'correct'
p2548
aI1
aI9
aS'false(reach)'
p2549
aF5.880514008
aS'correct'
p2550
aI1
aI10
aS'false(reach)'
p2551
aF5.684617614
aS'correct'
p2552
asS'../../c/list-properties/simple_built_from_end_true-unreach-call_false-valid-memtrack.i'
p2553
(lp2554
I1
aI1
aS'true'
p2555
aF4.701370318
aS'correct'
p2556
aI1
aI2
aS'true'
p2557
aF6.079640545
aS'correct'
p2558
aI1
aI3
aS'true'
p2559
aF6.118859145
aS'correct'
p2560
aI1
aI4
aS'true'
p2561
aF6.060620722
aS'correct'
p2562
aI1
aI5
aS'true'
p2563
aF6.315000769
aS'correct'
p2564
aI1
aI6
aS'true'
p2565
aF6.273576707
aS'correct'
p2566
aI1
aI7
aS'true'
p2567
aF6.527843632
aS'correct'
p2568
aI1
aI8
aS'true'
p2569
aF6.977606265
aS'correct'
p2570
aI1
aI9
aS'true'
p2571
aF7.424007384
aS'correct'
p2572
aI1
aI10
aS'true'
p2573
aF8.401868276
aS'correct'
p2574
asS'../../c/forester-heap/dll-optional_true-unreach-call_true-valid-memsafety.i'
p2575
(lp2576
I1
aI1
aS'true'
p2577
aF7.120043048
aS'correct'
p2578
aI1
aI2
aS'true'
p2579
aF9.499835678
aS'correct'
p2580
aI1
aI3
aS'true'
p2581
aF10.940795336
aS'correct'
p2582
aI1
aI4
aS'true'
p2583
aF16.968746947
aS'correct'
p2584
aI1
aI5
aS'true'
p2585
aF42.766817723
aS'correct'
p2586
aI1
aI6
aS'true'
p2587
aF161.895278429
aS'correct'
p2588
aI1
aI7
aS'true'
p2589
aF654.602860876
aS'correct'
p2590
aI1
aI8
aS'TIMEOUT'
p2591
aI500000000
aS'error'
p2592
aI1
aI9
aS'TIMEOUT'
p2593
aI500000000
aS'error'
p2594
aI1
aI10
aS'TIMEOUT'
p2595
aI500000000
aS'error'
p2596
asS'../../c/ldv-regression/rule57_ebda_blast.c_true-unreach-call_1.i'
p2597
(lp2598
I1
aI1
aS'true'
p2599
aF5.770741455
aS'correct'
p2600
aI1
aI2
aS'true'
p2601
aF5.864921178
aS'correct'
p2602
aI1
aI3
aS'true'
p2603
aF5.776271358
aS'correct'
p2604
aI1
aI4
aS'true'
p2605
aF5.847168932
aS'correct'
p2606
aI1
aI5
aS'true'
p2607
aF5.835928428
aS'correct'
p2608
aI1
aI6
aS'true'
p2609
aF6.036708154
aS'correct'
p2610
aI1
aI7
aS'true'
p2611
aF5.940901265
aS'correct'
p2612
aI1
aI8
aS'true'
p2613
aF5.823132046
aS'correct'
p2614
aI1
aI9
aS'true'
p2615
aF5.832325614
aS'correct'
p2616
aI1
aI10
aS'true'
p2617
aF5.933447757
aS'correct'
p2618
asS'../../c/list-properties/simple_true-unreach-call_false-valid-memtrack.i'
p2619
(lp2620
I1
aI1
aS'true'
p2621
aF4.802137545
aS'correct'
p2622
aI1
aI2
aS'true'
p2623
aF6.22567102
aS'correct'
p2624
aI1
aI3
aS'true'
p2625
aF6.245962103
aS'correct'
p2626
aI1
aI4
aS'true'
p2627
aF6.265765619
aS'correct'
p2628
aI1
aI5
aS'true'
p2629
aF6.357644978
aS'correct'
p2630
aI1
aI6
aS'true'
p2631
aF6.668665025
aS'correct'
p2632
aI1
aI7
aS'true'
p2633
aF6.939195881
aS'correct'
p2634
aI1
aI8
aS'true'
p2635
aF7.420747385
aS'correct'
p2636
aI1
aI9
aS'true'
p2637
aF8.530658554
aS'correct'
p2638
aI1
aI10
aS'true'
p2639
aF9.996677251
aS'correct'
p2640
asS'../../c/ldv-regression/test27_false-unreach-call.c'
p2641
(lp2642
I1
aI1
aS'false(reach)'
p2643
aF3.842669015
aS'correct'
p2644
aI1
aI2
aS'false(reach)'
p2645
aF3.77412682
aS'correct'
p2646
aI1
aI3
aS'false(reach)'
p2647
aF3.951541745
aS'correct'
p2648
aI1
aI4
aS'false(reach)'
p2649
aF3.845275094
aS'correct'
p2650
aI1
aI5
aS'false(reach)'
p2651
aF3.877757477
aS'correct'
p2652
aI1
aI6
aS'false(reach)'
p2653
aF4.937842782
aS'correct'
p2654
aI1
aI7
aS'false(reach)'
p2655
aF3.885807475
aS'correct'
p2656
aI1
aI8
aS'false(reach)'
p2657
aF3.773449962
aS'correct'
p2658
aI1
aI9
aS'false(reach)'
p2659
aF3.903673096
aS'correct'
p2660
aI1
aI10
aS'false(reach)'
p2661
aF3.903359314
aS'correct'
p2662
asS'../../c/ldv-regression/test17_true-unreach-call.c'
p2663
(lp2664
I1
aI1
aS'true'
p2665
aF2.821054142
aS'correct'
p2666
aI1
aI2
aS'true'
p2667
aF2.826133664
aS'correct'
p2668
aI1
aI3
aS'true'
p2669
aF2.817503837
aS'correct'
p2670
aI1
aI4
aS'true'
p2671
aF2.80360152
aS'correct'
p2672
aI1
aI5
aS'true'
p2673
aF2.775529328
aS'correct'
p2674
aI1
aI6
aS'true'
p2675
aF2.77484354
aS'correct'
p2676
aI1
aI7
aS'true'
p2677
aF2.803650094
aS'correct'
p2678
aI1
aI8
aS'true'
p2679
aF2.95966962
aS'correct'
p2680
aI1
aI9
aS'true'
p2681
aF2.853744392
aS'correct'
p2682
aI1
aI10
aS'true'
p2683
aF2.883600154
aS'correct'
p2684
asS'../../c/ldv-regression/test21_true-unreach-call.c'
p2685
(lp2686
I1
aI1
aS'true'
p2687
aF4.563320861
aS'correct'
p2688
aI1
aI2
aS'true'
p2689
aF4.544474268
aS'correct'
p2690
aI1
aI3
aS'true'
p2691
aF4.57335298
aS'correct'
p2692
aI1
aI4
aS'true'
p2693
aF4.574975763
aS'correct'
p2694
aI1
aI5
aS'true'
p2695
aF4.786818309
aS'correct'
p2696
aI1
aI6
aS'true'
p2697
aF4.522783438
aS'correct'
p2698
aI1
aI7
aS'true'
p2699
aF4.565967936
aS'correct'
p2700
aI1
aI8
aS'true'
p2701
aF4.643022527
aS'correct'
p2702
aI1
aI9
aS'true'
p2703
aF4.629395493
aS'correct'
p2704
aI1
aI10
aS'true'
p2705
aF4.529608694
aS'correct'
p2706
asS'../../c/ddv-machzwd/ddv_machzwd_outl_true-unreach-call_false-valid-memtrack.i'
p2707
(lp2708
I1
aI1
aS'true'
p2709
aF6.934568792
aS'correct'
p2710
aI1
aI2
aS'true'
p2711
aF6.915435654
aS'correct'
p2712
aI1
aI3
aS'true'
p2713
aF6.946736442
aS'correct'
p2714
aI1
aI4
aS'true'
p2715
aF6.911682259
aS'correct'
p2716
aI1
aI5
aS'true'
p2717
aF6.955876525
aS'correct'
p2718
aI1
aI6
aS'true'
p2719
aF7.062908824
aS'correct'
p2720
aI1
aI7
aS'true'
p2721
aF7.258993
aS'correct'
p2722
aI1
aI8
aS'true'
p2723
aF7.06499438
aS'correct'
p2724
aI1
aI9
aS'true'
p2725
aF7.20088036
aS'correct'
p2726
aI1
aI10
aS'true'
p2727
aF6.896747134
aS'correct'
p2728
asS'../../c/ldv-regression/1_3.c_false-unreach-call.i'
p2729
(lp2730
I1
aI1
aS'false(reach)'
p2731
aF4.827056457
aS'correct'
p2732
aI1
aI2
aS'false(reach)'
p2733
aF4.904328419
aS'correct'
p2734
aI1
aI3
aS'false(reach)'
p2735
aF4.801610122
aS'correct'
p2736
aI1
aI4
aS'false(reach)'
p2737
aF4.923905519
aS'correct'
p2738
aI1
aI5
aS'false(reach)'
p2739
aF4.93206668
aS'correct'
p2740
aI1
aI6
aS'false(reach)'
p2741
aF4.902754072
aS'correct'
p2742
aI1
aI7
aS'false(reach)'
p2743
aF4.84578076
aS'correct'
p2744
aI1
aI8
aS'false(reach)'
p2745
aF4.906574099
aS'correct'
p2746
aI1
aI9
aS'false(reach)'
p2747
aF4.905928719
aS'correct'
p2748
aI1
aI10
aS'false(reach)'
p2749
aF4.926148701
aS'correct'
p2750
asS'../../c/ldv-regression/rule57_ebda_blast.c_false-unreach-call.i'
p2751
(lp2752
I1
aI1
aS'false(reach)'
p2753
aF6.634337857
aS'correct'
p2754
aI1
aI2
aS'false(reach)'
p2755
aF6.572175227
aS'correct'
p2756
aI1
aI3
aS'false(reach)'
p2757
aF6.399547349
aS'correct'
p2758
aI1
aI4
aS'false(reach)'
p2759
aF6.525046951
aS'correct'
p2760
aI1
aI5
aS'false(reach)'
p2761
aF6.565534258
aS'correct'
p2762
aI1
aI6
aS'false(reach)'
p2763
aF6.474065433
aS'correct'
p2764
aI1
aI7
aS'false(reach)'
p2765
aF6.614678946
aS'correct'
p2766
aI1
aI8
aS'false(reach)'
p2767
aF6.588271548
aS'correct'
p2768
aI1
aI9
aS'false(reach)'
p2769
aF6.619126846
aS'correct'
p2770
aI1
aI10
aS'false(reach)'
p2771
aF6.425549362
aS'correct'
p2772
asS'../../c/forester-heap/sll-rb-sentinel_true-unreach-call_true-valid-memsafety.i'
p2773
(lp2774
I1
aI1
aS'true'
p2775
aF8.25012554
aS'correct'
p2776
aI1
aI2
aS'true'
p2777
aF8.285372323
aS'correct'
p2778
aI1
aI3
aS'true'
p2779
aF8.734512672
aS'correct'
p2780
aI1
aI4
aS'true'
p2781
aF10.617299778
aS'correct'
p2782
aI1
aI5
aS'true'
p2783
aF15.194587599
aS'correct'
p2784
aI1
aI6
aS'true'
p2785
aF26.97368488
aS'correct'
p2786
aI1
aI7
aS'true'
p2787
aF56.37137227
aS'correct'
p2788
aI1
aI8
aS'true'
p2789
aF143.571005763
aS'correct'
p2790
aI1
aI9
aS'true'
p2791
aF410.89783643
aS'correct'
p2792
aI1
aI10
aS'TIMEOUT'
p2793
aI500000000
aS'error'
p2794
asS'../../c/forester-heap/dll-rb-sentinel_true-unreach-call_true-valid-memsafety.i'
p2795
(lp2796
I1
aI1
aS'true'
p2797
aF8.530005006
aS'correct'
p2798
aI1
aI2
aS'true'
p2799
aF8.5819287
aS'correct'
p2800
aI1
aI3
aS'true'
p2801
aF9.224911491
aS'correct'
p2802
aI1
aI4
aS'true'
p2803
aF10.845818233
aS'correct'
p2804
aI1
aI5
aS'true'
p2805
aF15.935617864
aS'correct'
p2806
aI1
aI6
aS'true'
p2807
aF30.491947524
aS'correct'
p2808
aI1
aI7
aS'true'
p2809
aF69.510789027
aS'correct'
p2810
aI1
aI8
aS'true'
p2811
aF195.550044828
aS'correct'
p2812
aI1
aI9
aS'true'
p2813
aF537.684608218
aS'correct'
p2814
aI1
aI10
aS'TIMEOUT'
p2815
aI500000000
aS'error'
p2816
asS'../../c/ldv-regression/test26_false-unreach-call.c'
p2817
(lp2818
I1
aI1
aS'false(reach)'
p2819
aF3.406863312
aS'correct'
p2820
aI1
aI2
aS'false(reach)'
p2821
aF3.420423053
aS'correct'
p2822
aI1
aI3
aS'false(reach)'
p2823
aF3.479026414
aS'correct'
p2824
aI1
aI4
aS'false(reach)'
p2825
aF3.547171187
aS'correct'
p2826
aI1
aI5
aS'false(reach)'
p2827
aF3.450969723
aS'correct'
p2828
aI1
aI6
aS'false(reach)'
p2829
aF3.466911388
aS'correct'
p2830
aI1
aI7
aS'false(reach)'
p2831
aF3.36657063
aS'correct'
p2832
aI1
aI8
aS'false(reach)'
p2833
aF3.461545593
aS'correct'
p2834
aI1
aI9
aS'false(reach)'
p2835
aF3.434923535
aS'correct'
p2836
aI1
aI10
aS'false(reach)'
p2837
aF3.372947526
aS'correct'
p2838
asS'../../c/ldv-regression/test20_true-unreach-call.c'
p2839
(lp2840
I1
aI1
aS'true'
p2841
aF2.83723695
aS'correct'
p2842
aI1
aI2
aS'true'
p2843
aF2.790443062
aS'correct'
p2844
aI1
aI3
aS'true'
p2845
aF2.8233552
aS'correct'
p2846
aI1
aI4
aS'true'
p2847
aF2.833279608
aS'correct'
p2848
aI1
aI5
aS'true'
p2849
aF2.827881418
aS'correct'
p2850
aI1
aI6
aS'true'
p2851
aF2.826074541
aS'correct'
p2852
aI1
aI7
aS'true'
p2853
aF2.881796305
aS'correct'
p2854
aI1
aI8
aS'true'
p2855
aF2.820670668
aS'correct'
p2856
aI1
aI9
aS'true'
p2857
aF2.795130272
aS'correct'
p2858
aI1
aI10
aS'true'
p2859
aF2.883218634
aS'correct'
p2860
asS'../../c/ldv-regression/nested_structure_true-unreach-call.i'
p2861
(lp2862
I1
aI1
aS'true'
p2863
aF4.436166506
aS'correct'
p2864
aI1
aI2
aS'true'
p2865
aF4.327868069
aS'correct'
p2866
aI1
aI3
aS'true'
p2867
aF4.339630555
aS'correct'
p2868
aI1
aI4
aS'true'
p2869
aF4.377259824
aS'correct'
p2870
aI1
aI5
aS'true'
p2871
aF4.328334808
aS'correct'
p2872
aI1
aI6
aS'true'
p2873
aF4.334659287
aS'correct'
p2874
aI1
aI7
aS'true'
p2875
aF4.341112411
aS'correct'
p2876
aI1
aI8
aS'true'
p2877
aF4.441270428
aS'correct'
p2878
aI1
aI9
aS'true'
p2879
aF4.319905136
aS'correct'
p2880
aI1
aI10
aS'true'
p2881
aF4.377997948
aS'correct'
p2882
asS'../../c/list-properties/list_flag_true-unreach-call_false-valid-memtrack.i'
p2883
(lp2884
I1
aI1
aS'true'
p2885
aF4.999774822
aS'correct'
p2886
aI1
aI2
aS'true'
p2887
aF4.939971704
aS'correct'
p2888
aI1
aI3
aS'true'
p2889
aF5.059120821
aS'correct'
p2890
aI1
aI4
aS'true'
p2891
aF5.130644316
aS'correct'
p2892
aI1
aI5
aS'true'
p2893
aF5.497779866
aS'correct'
p2894
aI1
aI6
aS'true'
p2895
aF6.139031206
aS'correct'
p2896
aI1
aI7
aS'true'
p2897
aF7.330932552
aS'correct'
p2898
aI1
aI8
aS'true'
p2899
aF9.537176967
aS'correct'
p2900
aI1
aI9
aS'true'
p2901
aF13.23530597
aS'correct'
p2902
aI1
aI10
aS'true'
p2903
aF19.028127258
aS'correct'
p2904
asS'../../c/ldv-regression/test27_true-unreach-call.c'
p2905
(lp2906
I1
aI1
aS'true'
p2907
aF4.677569342
aS'correct'
p2908
aI1
aI2
aS'true'
p2909
aF4.737588986
aS'correct'
p2910
aI1
aI3
aS'true'
p2911
aF5.025563688
aS'correct'
p2912
aI1
aI4
aS'true'
p2913
aF4.755222473
aS'correct'
p2914
aI1
aI5
aS'true'
p2915
aF4.857537313
aS'correct'
p2916
aI1
aI6
aS'true'
p2917
aF4.96127037
aS'correct'
p2918
aI1
aI7
aS'true'
p2919
aF4.973027598
aS'correct'
p2920
aI1
aI8
aS'true'
p2921
aF4.944951089
aS'correct'
p2922
aI1
aI9
aS'true'
p2923
aF4.895002697
aS'correct'
p2924
aI1
aI10
aS'true'
p2925
aF4.907468424
aS'correct'
p2926
asS'../../c/ldv-regression/alias_of_return.c_true-unreach-call.i'
p2927
(lp2928
I1
aI1
aS'true'
p2929
aF4.125665493
aS'correct'
p2930
aI1
aI2
aS'true'
p2931
aF4.207336547
aS'correct'
p2932
aI1
aI3
aS'true'
p2933
aF4.096474504
aS'correct'
p2934
aI1
aI4
aS'true'
p2935
aF4.209652477
aS'correct'
p2936
aI1
aI5
aS'true'
p2937
aF4.191462651
aS'correct'
p2938
aI1
aI6
aS'true'
p2939
aF4.253378294
aS'correct'
p2940
aI1
aI7
aS'true'
p2941
aF4.179646856
aS'correct'
p2942
aI1
aI8
aS'true'
p2943
aF4.150719165
aS'correct'
p2944
aI1
aI9
aS'true'
p2945
aF4.176153682
aS'correct'
p2946
aI1
aI10
aS'true'
p2947
aF4.23663612
aS'correct'
p2948
asS'../../c/forester-heap/dll-01_false-unreach-call_false-valid-memcleanup.i'
p2949
(lp2950
I1
aI1
aS'false(reach)'
p2951
aF7.800065771
aS'correct'
p2952
aI1
aI2
aS'false(reach)'
p2953
aF7.909830121
aS'correct'
p2954
aI1
aI3
aS'false(reach)'
p2955
aF7.972472839
aS'correct'
p2956
aI1
aI4
aS'false(reach)'
p2957
aF7.839612354
aS'correct'
p2958
aI1
aI5
aS'false(reach)'
p2959
aF7.832184514
aS'correct'
p2960
aI1
aI6
aS'false(reach)'
p2961
aF8.114820522
aS'correct'
p2962
aI1
aI7
aS'false(reach)'
p2963
aF8.02679277
aS'correct'
p2964
aI1
aI8
aS'false(reach)'
p2965
aF8.022075745
aS'correct'
p2966
aI1
aI9
aS'false(reach)'
p2967
aF7.96147152
aS'correct'
p2968
aI1
aI10
aS'false(reach)'
p2969
aF7.877864328
aS'correct'
p2970
asS'../../c/forester-heap/dll-reverse_true-unreach-call_true-valid-memsafety.i'
p2971
(lp2972
I1
aI1
aS'true'
p2973
aF6.876725019
aS'correct'
p2974
aI1
aI2
aS'true'
p2975
aF8.543072747
aS'correct'
p2976
aI1
aI3
aS'true'
p2977
aF9.054488228
aS'correct'
p2978
aI1
aI4
aS'true'
p2979
aF9.835834427
aS'correct'
p2980
aI1
aI5
aS'true'
p2981
aF11.548702048
aS'correct'
p2982
aI1
aI6
aS'true'
p2983
aF14.481866701
aS'correct'
p2984
aI1
aI7
aS'true'
p2985
aF22.370417774
aS'correct'
p2986
aI1
aI8
aS'true'
p2987
aF38.896539915
aS'correct'
p2988
aI1
aI9
aS'true'
p2989
aF69.304235888
aS'correct'
p2990
aI1
aI10
aS'true'
p2991
aF126.79950993
aS'correct'
p2992
asS'../../c/heap-manipulation/dll_of_dll_true-unreach-call_true-valid-memsafety.i'
p2993
(lp2994
I1
aI1
aS'true'
p2995
aF3.64654777
aS'correct'
p2996
aI1
aI2
aS'true'
p2997
aF65.47804939
aS'correct'
p2998
aI1
aI3
aS'true'
p2999
aF512.323882844
aS'correct'
p3000
aI1
aI4
aS'TIMEOUT'
p3001
aI500000000
aS'error'
p3002
aI1
aI5
aS'TIMEOUT'
p3003
aI500000000
aS'error'
p3004
aI1
aI6
aS'TIMEOUT'
p3005
aI500000000
aS'error'
p3006
aI1
aI7
aS'TIMEOUT'
p3007
aI500000000
aS'error'
p3008
aI1
aI8
aS'TIMEOUT'
p3009
aI500000000
aS'error'
p3010
aI1
aI9
aS'TIMEOUT'
p3011
aI500000000
aS'error'
p3012
aI1
aI10
aS'TIMEOUT'
p3013
aI500000000
aS'error'
p3014
asS'../../c/list-ext2-properties/simple_search_value_false-unreach-call.i'
p3015
(lp3016
I1
aI1
aS'true'
p3017
aI500000000
aS'wrong'
p3018
aI1
aI2
aS'true'
p3019
aI500000000
aS'wrong'
p3020
aI1
aI3
aS'true'
p3021
aI500000000
aS'wrong'
p3022
aI1
aI4
aS'true'
p3023
aI500000000
aS'wrong'
p3024
aI1
aI5
aS'true'
p3025
aI500000000
aS'wrong'
p3026
aI1
aI6
aS'true'
p3027
aI500000000
aS'wrong'
p3028
aI1
aI7
aS'true'
p3029
aI500000000
aS'wrong'
p3030
aI1
aI8
aS'true'
p3031
aI500000000
aS'wrong'
p3032
aI1
aI9
aS'true'
p3033
aI500000000
aS'wrong'
p3034
aI1
aI10
aS'true'
p3035
aI500000000
aS'wrong'
p3036
asS'../../c/ldv-regression/recursive_list.c_false-unreach-call.i'
p3037
(lp3038
I1
aI1
aS'false(reach)'
p3039
aF3.561420757
aS'correct'
p3040
aI1
aI2
aS'false(reach)'
p3041
aF3.549873172
aS'correct'
p3042
aI1
aI3
aS'false(reach)'
p3043
aF3.543425311
aS'correct'
p3044
aI1
aI4
aS'false(reach)'
p3045
aF3.589884879
aS'correct'
p3046
aI1
aI5
aS'false(reach)'
p3047
aF3.579924982
aS'correct'
p3048
aI1
aI6
aS'false(reach)'
p3049
aF3.52330672
aS'correct'
p3050
aI1
aI7
aS'false(reach)'
p3051
aF3.576369613
aS'correct'
p3052
aI1
aI8
aS'false(reach)'
p3053
aF3.565295305
aS'correct'
p3054
aI1
aI9
aS'false(reach)'
p3055
aF3.563554287
aS'correct'
p3056
aI1
aI10
aS'false(reach)'
p3057
aF3.583208284
aS'correct'
p3058
asS'../../c/ldv-regression/nested_structure.c_true-unreach-call.i'
p3059
(lp3060
I1
aI1
aS'true'
p3061
aF4.262006908
aS'correct'
p3062
aI1
aI2
aS'true'
p3063
aF4.307108487
aS'correct'
p3064
aI1
aI3
aS'true'
p3065
aF4.430072768
aS'correct'
p3066
aI1
aI4
aS'true'
p3067
aF4.312860121
aS'correct'
p3068
aI1
aI5
aS'true'
p3069
aF4.314339155
aS'correct'
p3070
aI1
aI6
aS'true'
p3071
aF4.407606379
aS'correct'
p3072
aI1
aI7
aS'true'
p3073
aF4.39033387
aS'correct'
p3074
aI1
aI8
aS'true'
p3075
aF4.372537126
aS'correct'
p3076
aI1
aI9
aS'true'
p3077
aF4.584807794
aS'correct'
p3078
aI1
aI10
aS'true'
p3079
aF4.349619103
aS'correct'
p3080
asS'../../c/ddv-machzwd/ddv_machzwd_inl_true-unreach-call_false-valid-memtrack.i'
p3081
(lp3082
I1
aI1
aS'true'
p3083
aF6.893468344
aS'correct'
p3084
aI1
aI2
aS'true'
p3085
aF6.999458368
aS'correct'
p3086
aI1
aI3
aS'true'
p3087
aF6.912765448
aS'correct'
p3088
aI1
aI4
aS'true'
p3089
aF7.044399811
aS'correct'
p3090
aI1
aI5
aS'true'
p3091
aF7.154012099
aS'correct'
p3092
aI1
aI6
aS'true'
p3093
aF7.01959875
aS'correct'
p3094
aI1
aI7
aS'true'
p3095
aF7.307421167
aS'correct'
p3096
aI1
aI8
aS'true'
p3097
aF7.041601402
aS'correct'
p3098
aI1
aI9
aS'true'
p3099
aF7.084345278
aS'correct'
p3100
aI1
aI10
aS'true'
p3101
aF6.869157229
aS'correct'
p3102
asS'../../c/forester-heap/dll-sorted_false-unreach-call_false-valid-memcleanup.i'
p3103
(lp3104
I1
aI1
aS'true'
p3105
aI500000000
aS'wrong'
p3106
aI1
aI2
aS'false(reach)'
p3107
aF6.382254924
aS'correct'
p3108
aI1
aI3
aS'false(reach)'
p3109
aF6.297535082
aS'correct'
p3110
aI1
aI4
aS'false(reach)'
p3111
aF6.33622895
aS'correct'
p3112
aI1
aI5
aS'false(reach)'
p3113
aF6.19593736
aS'correct'
p3114
aI1
aI6
aS'false(reach)'
p3115
aF6.133102011
aS'correct'
p3116
aI1
aI7
aS'false(reach)'
p3117
aF6.265682256
aS'correct'
p3118
aI1
aI8
aS'false(reach)'
p3119
aF6.328759496
aS'correct'
p3120
aI1
aI9
aS'false(reach)'
p3121
aF6.461334171
aS'correct'
p3122
aI1
aI10
aS'false(reach)'
p3123
aF6.286389821
aS'correct'
p3124
asS'../../c/ldv-regression/mutex_lock_struct.c_true-unreach-call_1.i'
p3125
(lp3126
I1
aI1
aS'true'
p3127
aF4.176089928
aS'correct'
p3128
aI1
aI2
aS'true'
p3129
aF4.156036764
aS'correct'
p3130
aI1
aI3
aS'true'
p3131
aF4.294737367
aS'correct'
p3132
aI1
aI4
aS'true'
p3133
aF4.274160083
aS'correct'
p3134
aI1
aI5
aS'true'
p3135
aF4.264733654
aS'correct'
p3136
aI1
aI6
aS'true'
p3137
aF4.170236027
aS'correct'
p3138
aI1
aI7
aS'true'
p3139
aF4.159839794
aS'correct'
p3140
aI1
aI8
aS'true'
p3141
aF4.234397077
aS'correct'
p3142
aI1
aI9
aS'true'
p3143
aF4.274268552
aS'correct'
p3144
aI1
aI10
aS'true'
p3145
aF4.223225787
aS'correct'
p3146
asS'../../c/ldv-regression/test24_true-unreach-call.c'
p3147
(lp3148
I1
aI1
aS'true'
p3149
aF4.493864633
aS'correct'
p3150
aI1
aI2
aS'true'
p3151
aF4.572491971
aS'correct'
p3152
aI1
aI3
aS'true'
p3153
aF4.548594809
aS'correct'
p3154
aI1
aI4
aS'true'
p3155
aF4.623363685
aS'correct'
p3156
aI1
aI5
aS'true'
p3157
aF4.682681511
aS'correct'
p3158
aI1
aI6
aS'true'
p3159
aF4.740617426
aS'correct'
p3160
aI1
aI7
aS'true'
p3161
aF4.634076882
aS'correct'
p3162
aI1
aI8
aS'true'
p3163
aF4.679198772
aS'correct'
p3164
aI1
aI9
aS'true'
p3165
aF4.813292318
aS'correct'
p3166
aI1
aI10
aS'true'
p3167
aF4.682674831
aS'correct'
p3168
asS'../../c/ldv-regression/test25_true-unreach-call.c'
p3169
(lp3170
I1
aI1
aS'true'
p3171
aF5.519990222
aS'correct'
p3172
aI1
aI2
aS'true'
p3173
aF5.627711752
aS'correct'
p3174
aI1
aI3
aS'true'
p3175
aF5.911453566
aS'correct'
p3176
aI1
aI4
aS'true'
p3177
aF6.077381389
aS'correct'
p3178
aI1
aI5
aS'true'
p3179
aF6.38148177
aS'correct'
p3180
aI1
aI6
aS'true'
p3181
aF6.401740187
aS'correct'
p3182
aI1
aI7
aS'true'
p3183
aF6.797243016
aS'correct'
p3184
aI1
aI8
aS'true'
p3185
aF6.970071752
aS'correct'
p3186
aI1
aI9
aS'true'
p3187
aF7.084949129
aS'correct'
p3188
aI1
aI10
aS'true'
p3189
aF7.398593509
aS'correct'
p3190
asS'../../c/list-ext-properties/list-ext_false-unreach-call_false-valid-deref.i'
p3191
(lp3192
I1
aI1
aS'false(reach)'
p3193
aF6.964676345
aS'correct'
p3194
aI1
aI2
aS'false(reach)'
p3195
aF7.015706012
aS'correct'
p3196
aI1
aI3
aS'false(reach)'
p3197
aF6.953723734
aS'correct'
p3198
aI1
aI4
aS'false(reach)'
p3199
aF6.950166227
aS'correct'
p3200
aI1
aI5
aS'false(reach)'
p3201
aF7.091515121
aS'correct'
p3202
aI1
aI6
aS'false(reach)'
p3203
aF7.239393963
aS'correct'
p3204
aI1
aI7
aS'false(reach)'
p3205
aF7.186141578
aS'correct'
p3206
aI1
aI8
aS'false(reach)'
p3207
aF7.01553342
aS'correct'
p3208
aI1
aI9
aS'false(reach)'
p3209
aF6.885151851
aS'correct'
p3210
aI1
aI10
aS'false(reach)'
p3211
aF6.923025732
aS'correct'
p3212
asS'../../c/ldv-regression/test28_false-unreach-call.c'
p3213
(lp3214
I1
aI1
aS'false(reach)'
p3215
aF4.907970014
aS'correct'
p3216
aI1
aI2
aS'false(reach)'
p3217
aF4.784887338
aS'correct'
p3218
aI1
aI3
aS'false(reach)'
p3219
aF4.810710524
aS'correct'
p3220
aI1
aI4
aS'false(reach)'
p3221
aF4.758874734
aS'correct'
p3222
aI1
aI5
aS'false(reach)'
p3223
aF4.890654437
aS'correct'
p3224
aI1
aI6
aS'false(reach)'
p3225
aF6.005211105
aS'correct'
p3226
aI1
aI7
aS'false(reach)'
p3227
aF4.876005604
aS'correct'
p3228
aI1
aI8
aS'false(reach)'
p3229
aF4.811486165
aS'correct'
p3230
aI1
aI9
aS'false(reach)'
p3231
aF4.88689878
aS'correct'
p3232
aI1
aI10
aS'false(reach)'
p3233
aF4.722098415
aS'correct'
p3234
asS'../../c/ldv-regression/alias_of_return.c_true-unreach-call_1.i'
p3235
(lp3236
I1
aI1
aS'true'
p3237
aF2.803775057
aS'correct'
p3238
aI1
aI2
aS'true'
p3239
aF2.823527574
aS'correct'
p3240
aI1
aI3
aS'true'
p3241
aF2.844452826
aS'correct'
p3242
aI1
aI4
aS'true'
p3243
aF2.777901924
aS'correct'
p3244
aI1
aI5
aS'true'
p3245
aF2.81028323
aS'correct'
p3246
aI1
aI6
aS'true'
p3247
aF2.796900269
aS'correct'
p3248
aI1
aI7
aS'true'
p3249
aF2.822919225
aS'correct'
p3250
aI1
aI8
aS'true'
p3251
aF2.842315612
aS'correct'
p3252
aI1
aI9
aS'true'
p3253
aF2.848310807
aS'correct'
p3254
aI1
aI10
aS'true'
p3255
aF2.895659545
aS'correct'
p3256
asS'../../c/ldv-regression/test_malloc-2_true-unreach-call.i'
p3257
(lp3258
I1
aI1
aS'true'
p3259
aF4.176931345
aS'correct'
p3260
aI1
aI2
aS'true'
p3261
aF4.132505581
aS'correct'
p3262
aI1
aI3
aS'true'
p3263
aF4.282496173
aS'correct'
p3264
aI1
aI4
aS'true'
p3265
aF4.174463926
aS'correct'
p3266
aI1
aI5
aS'true'
p3267
aF4.097854358
aS'correct'
p3268
aI1
aI6
aS'true'
p3269
aF4.173457623
aS'correct'
p3270
aI1
aI7
aS'true'
p3271
aF4.203184853
aS'correct'
p3272
aI1
aI8
aS'true'
p3273
aF4.085118313
aS'correct'
p3274
aI1
aI9
aS'true'
p3275
aF4.192780047
aS'correct'
p3276
aI1
aI10
aS'true'
p3277
aF4.32511561
aS'correct'
p3278
asS'../../c/ddv-machzwd/ddv_machzwd_all_false-unreach-call_true-valid-memsafety.i'
p3279
(lp3280
I1
aI1
aS'false(reach)'
p3281
aF13.241619042
aS'correct'
p3282
aI1
aI2
aS'false(reach)'
p3283
aF13.001103837
aS'correct'
p3284
aI1
aI3
aS'false(reach)'
p3285
aF13.035709001
aS'correct'
p3286
aI1
aI4
aS'false(reach)'
p3287
aF12.886832045
aS'correct'
p3288
aI1
aI5
aS'false(reach)'
p3289
aF13.102640511
aS'correct'
p3290
aI1
aI6
aS'false(reach)'
p3291
aF13.097838451
aS'correct'
p3292
aI1
aI7
aS'false(reach)'
p3293
aF13.190401412
aS'correct'
p3294
aI1
aI8
aS'false(reach)'
p3295
aF13.165652838
aS'correct'
p3296
aI1
aI9
aS'false(reach)'
p3297
aF12.94007151
aS'correct'
p3298
aI1
aI10
aS'false(reach)'
p3299
aF12.911551537
aS'correct'
p3300
asS'../../c/ldv-regression/sizeofparameters_test.c_true-unreach-call.i'
p3301
(lp3302
I1
aI1
aS'true'
p3303
aF4.209506519
aS'correct'
p3304
aI1
aI2
aS'true'
p3305
aF4.251330063
aS'correct'
p3306
aI1
aI3
aS'true'
p3307
aF4.219002329
aS'correct'
p3308
aI1
aI4
aS'true'
p3309
aF4.252668649
aS'correct'
p3310
aI1
aI5
aS'true'
p3311
aF4.224221921
aS'correct'
p3312
aI1
aI6
aS'true'
p3313
aF4.190059934
aS'correct'
p3314
aI1
aI7
aS'true'
p3315
aF4.265258575
aS'correct'
p3316
aI1
aI8
aS'true'
p3317
aF4.304185884
aS'correct'
p3318
aI1
aI9
aS'true'
p3319
aF4.17704725
aS'correct'
p3320
aI1
aI10
aS'true'
p3321
aF4.168316779
aS'correct'
p3322
asS'../../c/forester-heap/sll-rb-sentinel_false-unreach-call_false-valid-memcleanup.i'
p3323
(lp3324
I1
aI1
aS'true'
p3325
aI500000000
aS'wrong'
p3326
aI1
aI2
aS'false(reach)'
p3327
aF8.989221682
aS'correct'
p3328
aI1
aI3
aS'false(reach)'
p3329
aF9.07347259
aS'correct'
p3330
aI1
aI4
aS'false(reach)'
p3331
aF9.06524335
aS'correct'
p3332
aI1
aI5
aS'false(reach)'
p3333
aF8.879387277
aS'correct'
p3334
aI1
aI6
aS'false(reach)'
p3335
aF8.948158334
aS'correct'
p3336
aI1
aI7
aS'false(reach)'
p3337
aF9.207323091
aS'correct'
p3338
aI1
aI8
aS'false(reach)'
p3339
aF9.122159191
aS'correct'
p3340
aI1
aI9
aS'false(reach)'
p3341
aF8.998251281
aS'correct'
p3342
aI1
aI10
aS'false(reach)'
p3343
aF9.002201521
aS'correct'
p3344
asS'../../c/ldv-regression/test30_false-unreach-call.c'
p3345
(lp3346
I1
aI1
aS'false(reach)'
p3347
aF3.479194594
aS'correct'
p3348
aI1
aI2
aS'false(reach)'
p3349
aF3.564057002
aS'correct'
p3350
aI1
aI3
aS'false(reach)'
p3351
aF3.451796269
aS'correct'
p3352
aI1
aI4
aS'false(reach)'
p3353
aF3.513779639
aS'correct'
p3354
aI1
aI5
aS'false(reach)'
p3355
aF3.494765965
aS'correct'
p3356
aI1
aI6
aS'false(reach)'
p3357
aF3.39869821
aS'correct'
p3358
aI1
aI7
aS'false(reach)'
p3359
aF3.392297171
aS'correct'
p3360
aI1
aI8
aS'false(reach)'
p3361
aF3.494184566
aS'correct'
p3362
aI1
aI9
aS'false(reach)'
p3363
aF3.486729075
aS'correct'
p3364
aI1
aI10
aS'false(reach)'
p3365
aF3.506073256
aS'correct'
p3366
asS'../../c/forester-heap/sll-simple-white-blue_true-unreach-call_false-valid-memtrack.i'
p3367
(lp3368
I1
aI1
aS'true'
p3369
aF6.88094909
aS'correct'
p3370
aI1
aI2
aS'true'
p3371
aF6.771023168
aS'correct'
p3372
aI1
aI3
aS'true'
p3373
aF6.969548088
aS'correct'
p3374
aI1
aI4
aS'true'
p3375
aF7.524989211
aS'correct'
p3376
aI1
aI5
aS'true'
p3377
aF8.539021733
aS'correct'
p3378
aI1
aI6
aS'true'
p3379
aF9.968153645
aS'correct'
p3380
aI1
aI7
aS'true'
p3381
aF12.934868118
aS'correct'
p3382
aI1
aI8
aS'true'
p3383
aF16.381736561
aS'correct'
p3384
aI1
aI9
aS'true'
p3385
aF21.138445246
aS'correct'
p3386
aI1
aI10
aS'true'
p3387
aF29.157075713
aS'correct'
p3388
asS'../../c/ldv-regression/oomInt.c_true-unreach-call_1.i'
p3389
(lp3390
I1
aI1
aS'true'
p3391
aF4.131778324
aS'correct'
p3392
aI1
aI2
aS'true'
p3393
aF4.148376428
aS'correct'
p3394
aI1
aI3
aS'true'
p3395
aF4.153595528
aS'correct'
p3396
aI1
aI4
aS'true'
p3397
aF4.15629007
aS'correct'
p3398
aI1
aI5
aS'true'
p3399
aF4.220042642
aS'correct'
p3400
aI1
aI6
aS'true'
p3401
aF4.210651523
aS'correct'
p3402
aI1
aI7
aS'true'
p3403
aF4.184907192
aS'correct'
p3404
aI1
aI8
aS'true'
p3405
aF4.243160504
aS'correct'
p3406
aI1
aI9
aS'true'
p3407
aF4.26796945
aS'correct'
p3408
aI1
aI10
aS'true'
p3409
aF4.174088373
aS'correct'
p3410
asS'../../c/forester-heap/sll-rb-cnstr_1_true-unreach-call_true-valid-memsafety.i'
p3411
(lp3412
I1
aI1
aS'true'
p3413
aF8.149236217
aS'correct'
p3414
aI1
aI2
aS'true'
p3415
aF8.177796581
aS'correct'
p3416
aI1
aI3
aS'true'
p3417
aF8.471303705
aS'correct'
p3418
aI1
aI4
aS'true'
p3419
aF9.917858585
aS'correct'
p3420
aI1
aI5
aS'true'
p3421
aF14.08124307
aS'correct'
p3422
aI1
aI6
aS'true'
p3423
aF26.374617054
aS'correct'
p3424
aI1
aI7
aS'true'
p3425
aF55.294280645
aS'correct'
p3426
aI1
aI8
aS'true'
p3427
aF131.407356181
aS'correct'
p3428
aI1
aI9
aS'true'
p3429
aF379.493527142
aS'correct'
p3430
aI1
aI10
aS'TIMEOUT'
p3431
aI500000000
aS'error'
p3432
asS'../../c/ldv-regression/test21_false-unreach-call.c'
p3433
(lp3434
I1
aI1
aS'false(reach)'
p3435
aF3.804281393
aS'correct'
p3436
aI1
aI2
aS'false(reach)'
p3437
aF3.658056967
aS'correct'
p3438
aI1
aI3
aS'false(reach)'
p3439
aF3.714006136
aS'correct'
p3440
aI1
aI4
aS'false(reach)'
p3441
aF3.653793092
aS'correct'
p3442
aI1
aI5
aS'false(reach)'
p3443
aF3.677836345
aS'correct'
p3444
aI1
aI6
aS'false(reach)'
p3445
aF3.711535406
aS'correct'
p3446
aI1
aI7
aS'false(reach)'
p3447
aF3.767704357
aS'correct'
p3448
aI1
aI8
aS'false(reach)'
p3449
aF3.806058023
aS'correct'
p3450
aI1
aI9
aS'false(reach)'
p3451
aF3.721621915
aS'correct'
p3452
aI1
aI10
aS'false(reach)'
p3453
aF3.714321573
aS'correct'
p3454
asS'../../c/ldv-regression/mutex_lock_struct.c_false-unreach-call.i'
p3455
(lp3456
I1
aI1
aS'false(reach)'
p3457
aF4.774386332
aS'correct'
p3458
aI1
aI2
aS'false(reach)'
p3459
aF4.826055149
aS'correct'
p3460
aI1
aI3
aS'false(reach)'
p3461
aF4.855440286
aS'correct'
p3462
aI1
aI4
aS'false(reach)'
p3463
aF4.799481186
aS'correct'
p3464
aI1
aI5
aS'false(reach)'
p3465
aF4.771661454
aS'correct'
p3466
aI1
aI6
aS'false(reach)'
p3467
aF4.825063004
aS'correct'
p3468
aI1
aI7
aS'false(reach)'
p3469
aF4.687302195
aS'correct'
p3470
aI1
aI8
aS'false(reach)'
p3471
aF4.798301677
aS'correct'
p3472
aI1
aI9
aS'false(reach)'
p3473
aF4.881819038
aS'correct'
p3474
aI1
aI10
aS'false(reach)'
p3475
aF4.735503276
aS'correct'
p3476
asS'../../c/forester-heap/sll-01_true-unreach-call_true-valid-memsafety.i'
p3477
(lp3478
I1
aI1
aS'true'
p3479
aF10.646288025
aS'correct'
p3480
aI1
aI2
aS'true'
p3481
aF11.475257803
aS'correct'
p3482
aI1
aI3
aS'true'
p3483
aF13.277005384
aS'correct'
p3484
aI1
aI4
aS'true'
p3485
aF19.296949194
aS'correct'
p3486
aI1
aI5
aS'true'
p3487
aF33.818353277
aS'correct'
p3488
aI1
aI6
aS'true'
p3489
aF75.087968858
aS'correct'
p3490
aI1
aI7
aS'true'
p3491
aF185.607464148
aS'correct'
p3492
aI1
aI8
aS'true'
p3493
aF544.410775197
aS'correct'
p3494
aI1
aI9
aS'TIMEOUT'
p3495
aI500000000
aS'error'
p3496
aI1
aI10
aS'TIMEOUT'
p3497
aI500000000
aS'error'
p3498
asS'../../c/forester-heap/dll-01_true-unreach-call_true-valid-memsafety.i'
p3499
(lp3500
I1
aI1
aS'true'
p3501
aF10.605474946
aS'correct'
p3502
aI1
aI2
aS'true'
p3503
aF11.445349094
aS'correct'
p3504
aI1
aI3
aS'true'
p3505
aF13.537277262
aS'correct'
p3506
aI1
aI4
aS'true'
p3507
aF19.684021349
aS'correct'
p3508
aI1
aI5
aS'true'
p3509
aF36.633020586
aS'correct'
p3510
aI1
aI6
aS'true'
p3511
aF91.308316058
aS'correct'
p3512
aI1
aI7
aS'true'
p3513
aF303.987544225
aS'correct'
p3514
aI1
aI8
aS'true'
p3515
aF889.137889168
aS'correct'
p3516
aI1
aI9
aS'TIMEOUT'
p3517
aI500000000
aS'error'
p3518
aI1
aI10
aS'TIMEOUT'
p3519
aI500000000
aS'error'
p3520
asS'../../c/ldv-regression/test_cut_trace.c_true-unreach-call.i'
p3521
(lp3522
I1
aI1
aS'true'
p3523
aF2.852040721
aS'correct'
p3524
aI1
aI2
aS'true'
p3525
aF2.814472232
aS'correct'
p3526
aI1
aI3
aS'true'
p3527
aF2.782776493
aS'correct'
p3528
aI1
aI4
aS'true'
p3529
aF2.900827271
aS'correct'
p3530
aI1
aI5
aS'true'
p3531
aF2.860082681
aS'correct'
p3532
aI1
aI6
aS'true'
p3533
aF2.784817538
aS'correct'
p3534
aI1
aI7
aS'true'
p3535
aF2.839193684
aS'correct'
p3536
aI1
aI8
aS'true'
p3537
aF2.865717137
aS'correct'
p3538
aI1
aI9
aS'true'
p3539
aF2.803113261
aS'correct'
p3540
aI1
aI10
aS'true'
p3541
aF2.801121106
aS'correct'
p3542
asS'../../c/heap-manipulation/tree_false-unreach-call_false-valid-memcleanup.i'
p3543
(lp3544
I1
aI1
aS'false(reach)'
p3545
aF4.383088345
aS'correct'
p3546
aI1
aI2
aS'false(reach)'
p3547
aF4.345286036
aS'correct'
p3548
aI1
aI3
aS'false(reach)'
p3549
aF4.282925968
aS'correct'
p3550
aI1
aI4
aS'false(reach)'
p3551
aF4.281538282
aS'correct'
p3552
aI1
aI5
aS'false(reach)'
p3553
aF4.324025262
aS'correct'
p3554
aI1
aI6
aS'false(reach)'
p3555
aF4.218931179
aS'correct'
p3556
aI1
aI7
aS'false(reach)'
p3557
aF4.28976419
aS'correct'
p3558
aI1
aI8
aS'false(reach)'
p3559
aF4.293793729
aS'correct'
p3560
aI1
aI9
aS'false(reach)'
p3561
aF4.310848889
aS'correct'
p3562
aI1
aI10
aS'false(reach)'
p3563
aF4.402165525
aS'correct'
p3564
asS'../../c/ldv-regression/test16_true-unreach-call.c'
p3565
(lp3566
I1
aI1
aS'true'
p3567
aF4.1770651
aS'correct'
p3568
aI1
aI2
aS'true'
p3569
aF4.232324539
aS'correct'
p3570
aI1
aI3
aS'true'
p3571
aF4.16001963
aS'correct'
p3572
aI1
aI4
aS'true'
p3573
aF4.158863775
aS'correct'
p3574
aI1
aI5
aS'true'
p3575
aF4.232788908
aS'correct'
p3576
aI1
aI6
aS'true'
p3577
aF4.213740883
aS'correct'
p3578
aI1
aI7
aS'true'
p3579
aF4.159309691
aS'correct'
p3580
aI1
aI8
aS'true'
p3581
aF4.158459197
aS'correct'
p3582
aI1
aI9
aS'true'
p3583
aF4.273807071
aS'correct'
p3584
aI1
aI10
aS'true'
p3585
aF4.156696043
aS'correct'
p3586
asS'../../c/forester-heap/sll-circular_true-unreach-call_true-valid-memsafety.i'
p3587
(lp3588
I1
aI1
aS'true'
p3589
aF6.923200268
aS'correct'
p3590
aI1
aI2
aS'true'
p3591
aF7.012203451
aS'correct'
p3592
aI1
aI3
aS'true'
p3593
aF7.441222241
aS'correct'
p3594
aI1
aI4
aS'true'
p3595
aF8.198277169
aS'correct'
p3596
aI1
aI5
aS'true'
p3597
aF9.263954344
aS'correct'
p3598
aI1
aI6
aS'true'
p3599
aF12.261449725
aS'correct'
p3600
aI1
aI7
aS'true'
p3601
aF18.876978541
aS'correct'
p3602
aI1
aI8
aS'true'
p3603
aF30.674276225
aS'correct'
p3604
aI1
aI9
aS'true'
p3605
aF57.566804529
aS'correct'
p3606
aI1
aI10
aS'true'
p3607
aF104.803060675
aS'correct'
p3608
asS'../../c/forester-heap/sll-rb-cnstr_1_false-unreach-call_false-valid-deref.i'
p3609
(lp3610
I1
aI1
aS'false(reach)'
p3611
aF7.253089223
aS'correct'
p3612
aI1
aI2
aS'false(reach)'
p3613
aF7.122118233
aS'correct'
p3614
aI1
aI3
aS'false(reach)'
p3615
aF8.007283731
aS'correct'
p3616
aI1
aI4
aS'false(reach)'
p3617
aF7.558419452
aS'correct'
p3618
aI1
aI5
aS'false(reach)'
p3619
aF7.211791931
aS'correct'
p3620
aI1
aI6
aS'false(reach)'
p3621
aF7.262632308
aS'correct'
p3622
aI1
aI7
aS'false(reach)'
p3623
aF7.290676224
aS'correct'
p3624
aI1
aI8
aS'false(reach)'
p3625
aF7.320982837
aS'correct'
p3626
aI1
aI9
aS'false(reach)'
p3627
aF7.255054756
aS'correct'
p3628
aI1
aI10
aS'false(reach)'
p3629
aF7.354826194
aS'correct'
p3630
asS'../../c/forester-heap/sll-01_false-unreach-call_false-valid-deref.i'
p3631
(lp3632
I1
aI1
aS'true'
p3633
aI500000000
aS'wrong'
p3634
aI1
aI2
aS'false(reach)'
p3635
aF11.680841013
aS'correct'
p3636
aI1
aI3
aS'false(reach)'
p3637
aF11.430884249
aS'correct'
p3638
aI1
aI4
aS'false(reach)'
p3639
aF11.495272114
aS'correct'
p3640
aI1
aI5
aS'false(reach)'
p3641
aF11.81705281
aS'correct'
p3642
aI1
aI6
aS'false(reach)'
p3643
aF12.078686863
aS'correct'
p3644
aI1
aI7
aS'false(reach)'
p3645
aF12.042405918
aS'correct'
p3646
aI1
aI8
aS'false(reach)'
p3647
aF11.801100207
aS'correct'
p3648
aI1
aI9
aS'false(reach)'
p3649
aF11.901625068
aS'correct'
p3650
aI1
aI10
aS'false(reach)'
p3651
aF11.874361757
aS'correct'
p3652
asS'../../c/list-properties/simple_false-unreach-call_false-valid-memcleanup.i'
p3653
(lp3654
I1
aI1
aS'false(reach)'
p3655
aF3.920049188
aS'correct'
p3656
aI1
aI2
aS'false(reach)'
p3657
aF3.953372879
aS'correct'
p3658
aI1
aI3
aS'false(reach)'
p3659
aF3.923693466
aS'correct'
p3660
aI1
aI4
aS'false(reach)'
p3661
aF3.895380788
aS'correct'
p3662
aI1
aI5
aS'false(reach)'
p3663
aF3.822044354
aS'correct'
p3664
aI1
aI6
aS'false(reach)'
p3665
aF3.969010248
aS'correct'
p3666
aI1
aI7
aS'false(reach)'
p3667
aF3.877854955
aS'correct'
p3668
aI1
aI8
aS'false(reach)'
p3669
aF3.888508442
aS'correct'
p3670
aI1
aI9
aS'false(reach)'
p3671
aF3.940907338
aS'correct'
p3672
aI1
aI10
aS'false(reach)'
p3673
aF3.885702829
aS'correct'
p3674
asS'../../c/list-properties/list_search_true-unreach-call_false-valid-memtrack.i'
p3675
(lp3676
I1
aI1
aS'true'
p3677
aF8.180976234
aS'correct'
p3678
aI1
aI2
aS'true'
p3679
aF8.093886815
aS'correct'
p3680
aI1
aI3
aS'true'
p3681
aF8.191312626
aS'correct'
p3682
aI1
aI4
aS'true'
p3683
aF8.197662408
aS'correct'
p3684
aI1
aI5
aS'true'
p3685
aF8.145912748
aS'correct'
p3686
aI1
aI6
aS'true'
p3687
aF8.186134853
aS'correct'
p3688
aI1
aI7
aS'true'
p3689
aF8.265954793
aS'correct'
p3690
aI1
aI8
aS'true'
p3691
aF8.039215072
aS'correct'
p3692
aI1
aI9
aS'true'
p3693
aF8.216167421
aS'correct'
p3694
aI1
aI10
aS'true'
p3695
aF8.103628099
aS'correct'
p3696
asS'../../c/ldv-regression/ex3_forlist.c_true-unreach-call.i'
p3697
(lp3698
I1
aI1
aS'true'
p3699
aF6.138931612
aS'correct'
p3700
aI1
aI2
aS'true'
p3701
aF7.943949809
aS'correct'
p3702
aI1
aI3
aS'true'
p3703
aF7.920935185
aS'correct'
p3704
aI1
aI4
aS'true'
p3705
aF8.065345926
aS'correct'
p3706
aI1
aI5
aS'true'
p3707
aF7.98673915
aS'correct'
p3708
aI1
aI6
aS'true'
p3709
aF7.807061837
aS'correct'
p3710
aI1
aI7
aS'true'
p3711
aF7.979733297
aS'correct'
p3712
aI1
aI8
aS'true'
p3713
aF8.123216247
aS'correct'
p3714
aI1
aI9
aS'true'
p3715
aF8.101933693
aS'correct'
p3716
aI1
aI10
aS'true'
p3717
aF7.824423464
aS'correct'
p3718
asS'../../c/list-ext2-properties/simple_and_skiplist_2lvl_false-unreach-call.i'
p3719
(lp3720
I1
aI1
aS'false(reach)'
p3721
aF4.174521125
aS'correct'
p3722
aI1
aI2
aS'false(reach)'
p3723
aF4.166087909
aS'correct'
p3724
aI1
aI3
aS'false(reach)'
p3725
aF4.188728986
aS'correct'
p3726
aI1
aI4
aS'false(reach)'
p3727
aF4.140875703
aS'correct'
p3728
aI1
aI5
aS'false(reach)'
p3729
aF5.212865551
aS'correct'
p3730
aI1
aI6
aS'false(reach)'
p3731
aF4.291814508
aS'correct'
p3732
aI1
aI7
aS'false(reach)'
p3733
aF4.315148013
aS'correct'
p3734
aI1
aI8
aS'false(reach)'
p3735
aF4.152276755
aS'correct'
p3736
aI1
aI9
aS'false(reach)'
p3737
aF4.203239409
aS'correct'
p3738
aI1
aI10
aS'false(reach)'
p3739
aF4.192141607
aS'correct'
p3740
asS'../../c/list-properties/list_flag_false-unreach-call_false-valid-memcleanup.i'
p3741
(lp3742
I1
aI1
aS'false(reach)'
p3743
aF5.557370521
aS'correct'
p3744
aI1
aI2
aS'false(reach)'
p3745
aF5.547379784
aS'correct'
p3746
aI1
aI3
aS'false(reach)'
p3747
aF5.542383065
aS'correct'
p3748
aI1
aI4
aS'false(reach)'
p3749
aF5.508458973
aS'correct'
p3750
aI1
aI5
aS'false(reach)'
p3751
aF5.572355824
aS'correct'
p3752
aI1
aI6
aS'false(reach)'
p3753
aF5.514010365
aS'correct'
p3754
aI1
aI7
aS'false(reach)'
p3755
aF5.715976402
aS'correct'
p3756
aI1
aI8
aS'false(reach)'
p3757
aF5.463392652
aS'correct'
p3758
aI1
aI9
aS'false(reach)'
p3759
aF5.505234599
aS'correct'
p3760
aI1
aI10
aS'false(reach)'
p3761
aF5.493647364
aS'correct'
p3762
asS'../../c/forester-heap/sll-sorted_true-unreach-call_true-valid-memsafety.i'
p3763
(lp3764
I1
aI1
aS'true'
p3765
aF3.760785721
aS'correct'
p3766
aI1
aI2
aS'true'
p3767
aF8.956864338
aS'correct'
p3768
aI1
aI3
aS'true'
p3769
aF9.442822289
aS'correct'
p3770
aI1
aI4
aS'true'
p3771
aF11.5240077
aS'correct'
p3772
aI1
aI5
aS'true'
p3773
aF16.056829101
aS'correct'
p3774
aI1
aI6
aS'true'
p3775
aF23.808096273
aS'correct'
p3776
aI1
aI7
aS'true'
p3777
aF39.545528314
aS'correct'
p3778
aI1
aI8
aS'true'
p3779
aF66.031563705
aS'correct'
p3780
aI1
aI9
aS'true'
p3781
aF120.715394608
aS'correct'
p3782
aI1
aI10
aS'true'
p3783
aF186.111480449
aS'correct'
p3784
asS'../../c/ldv-regression/test29_true-unreach-call.c'
p3785
(lp3786
I1
aI1
aS'true'
p3787
aF4.194280017
aS'correct'
p3788
aI1
aI2
aS'true'
p3789
aF4.176940969
aS'correct'
p3790
aI1
aI3
aS'true'
p3791
aF4.312860611
aS'correct'
p3792
aI1
aI4
aS'true'
p3793
aF4.284153609
aS'correct'
p3794
aI1
aI5
aS'true'
p3795
aF4.288846706
aS'correct'
p3796
aI1
aI6
aS'true'
p3797
aF4.293754234
aS'correct'
p3798
aI1
aI7
aS'true'
p3799
aF4.448804839
aS'correct'
p3800
aI1
aI8
aS'true'
p3801
aF4.261400297
aS'correct'
p3802
aI1
aI9
aS'true'
p3803
aF4.325941686
aS'correct'
p3804
aI1
aI10
aS'true'
p3805
aF4.316129317
aS'correct'
p3806
as.