(dp0
S'../../c/locks/test_locks_14_true-unreach-call_true-valid-memsafety_false-termination.c'
p1
(lp2
I0
aI1
aS'true'
p3
aF7.402213014
aS'correct'
p4
aI0
aI2
aS'true'
p5
aF7.319517123
aS'correct'
p6
aI0
aI3
aS'true'
p7
aF7.333449236
aS'correct'
p8
aI0
aI4
aS'true'
p9
aF7.265649504
aS'correct'
p10
aI0
aI5
aS'true'
p11
aF7.330685957
aS'correct'
p12
aI0
aI6
aS'true'
p13
aF7.345623774
aS'correct'
p14
aI0
aI7
aS'true'
p15
aF7.290085959
aS'correct'
p16
aI0
aI8
aS'true'
p17
aF7.290191178
aS'correct'
p18
aI0
aI9
aS'true'
p19
aF7.301111152
aS'correct'
p20
aI0
aI10
aS'true'
p21
aF7.268488259
aS'correct'
p22
asS'../../c/ssh-simplified/s3_clnt_3_false-unreach-call.cil.c'
p23
(lp24
I0
aI1
aS'true'
p25
aI500000000
aS'wrong'
p26
aI0
aI2
aS'true'
p27
aI500000000
aS'wrong'
p28
aI0
aI3
aS'true'
p29
aI500000000
aS'wrong'
p30
aI0
aI4
aS'true'
p31
aI500000000
aS'wrong'
p32
aI0
aI5
aS'true'
p33
aI500000000
aS'wrong'
p34
aI0
aI6
aS'false(reach)'
p35
aF9.235991158
aS'correct'
p36
aI0
aI7
aS'false(reach)'
p37
aF9.285298096
aS'correct'
p38
aI0
aI8
aS'false(reach)'
p39
aF9.283200112
aS'correct'
p40
aI0
aI9
aS'false(reach)'
p41
aF9.281598658
aS'correct'
p42
aI0
aI10
aS'false(reach)'
p43
aF9.263355335
aS'correct'
p44
asS'../../c/locks/test_locks_11_true-unreach-call_true-valid-memsafety_false-termination.c'
p45
(lp46
I0
aI1
aS'true'
p47
aF3.717523446
aS'correct'
p48
aI0
aI2
aS'true'
p49
aF3.767113925
aS'correct'
p50
aI0
aI3
aS'true'
p51
aF3.79953453
aS'correct'
p52
aI0
aI4
aS'true'
p53
aF3.762029179
aS'correct'
p54
aI0
aI5
aS'true'
p55
aF3.684632128
aS'correct'
p56
aI0
aI6
aS'true'
p57
aF3.698270399
aS'correct'
p58
aI0
aI7
aS'true'
p59
aF3.686353106
aS'correct'
p60
aI0
aI8
aS'true'
p61
aF3.726195201
aS'correct'
p62
aI0
aI9
aS'true'
p63
aF3.789485808
aS'correct'
p64
aI0
aI10
aS'true'
p65
aF3.682624506
aS'correct'
p66
asS'../../c/ssh-simplified/s3_srvr_6_false-unreach-call.cil.c'
p67
(lp68
I0
aI1
aS'false(reach)'
p69
aF6.281209124
aS'correct'
p70
aI0
aI2
aS'false(reach)'
p71
aF6.294266243
aS'correct'
p72
aI0
aI3
aS'false(reach)'
p73
aF6.27619674
aS'correct'
p74
aI0
aI4
aS'false(reach)'
p75
aF6.299667725
aS'correct'
p76
aI0
aI5
aS'false(reach)'
p77
aF6.30457282
aS'correct'
p78
aI0
aI6
aS'false(reach)'
p79
aF6.372364057
aS'correct'
p80
aI0
aI7
aS'false(reach)'
p81
aF6.317710328
aS'correct'
p82
aI0
aI8
aS'false(reach)'
p83
aF6.243687302
aS'correct'
p84
aI0
aI9
aS'false(reach)'
p85
aF6.236465582
aS'correct'
p86
aI0
aI10
aS'false(reach)'
p87
aF6.236002455
aS'correct'
p88
asS'../../c/ssh/s3_clnt.blast.01_true-unreach-call.i.cil.c'
p89
(lp90
I0
aI1
aS'true'
p91
aF6.062929123
aS'correct'
p92
aI0
aI2
aS'true'
p93
aF6.559726142
aS'correct'
p94
aI0
aI3
aS'true'
p95
aF7.949896349
aS'correct'
p96
aI0
aI4
aS'true'
p97
aF11.425740913
aS'correct'
p98
aI0
aI5
aS'true'
p99
aF16.935564681
aS'correct'
p100
aI0
aI6
aS'true'
p101
aF130.774736039
aS'correct'
p102
aI0
aI7
aS'true'
p103
aF432.807565492
aS'correct'
p104
aI0
aI8
aS'TIMEOUT'
p105
aI500000000
aS'error'
p106
aI0
aI9
aS'TIMEOUT'
p107
aI500000000
aS'error'
p108
aI0
aI10
aS'TIMEOUT'
p109
aI500000000
aS'error'
p110
asS'../../c/ssh-simplified/s3_srvr_1_false-unreach-call.cil.c'
p111
(lp112
I0
aI1
aS'true'
p113
aI500000000
aS'wrong'
p114
aI0
aI2
aS'true'
p115
aI500000000
aS'wrong'
p116
aI0
aI3
aS'true'
p117
aI500000000
aS'wrong'
p118
aI0
aI4
aS'false(reach)'
p119
aF7.48288734
aS'correct'
p120
aI0
aI5
aS'false(reach)'
p121
aF7.465968448
aS'correct'
p122
aI0
aI6
aS'false(reach)'
p123
aF7.395663556
aS'correct'
p124
aI0
aI7
aS'false(reach)'
p125
aF7.505828986
aS'correct'
p126
aI0
aI8
aS'false(reach)'
p127
aF7.517798142
aS'correct'
p128
aI0
aI9
aS'false(reach)'
p129
aF7.407234336
aS'correct'
p130
aI0
aI10
aS'false(reach)'
p131
aF7.529423027
aS'correct'
p132
asS'../../c/ntdrivers-simplified/floppy_simpl3_false-unreach-call_true-valid-memsafety_true-termination.cil.c'
p133
(lp134
I0
aI1
aS'false(reach)'
p135
aF47.577216055
aS'correct'
p136
aI0
aI2
aS'false(reach)'
p137
aF47.841062586
aS'correct'
p138
aI0
aI3
aS'false(reach)'
p139
aF47.864040327
aS'correct'
p140
aI0
aI4
aS'false(reach)'
p141
aF47.497999223
aS'correct'
p142
aI0
aI5
aS'false(reach)'
p143
aF47.38332076
aS'correct'
p144
aI0
aI6
aS'false(reach)'
p145
aF48.324897028
aS'correct'
p146
aI0
aI7
aS'false(reach)'
p147
aF47.087105675
aS'correct'
p148
aI0
aI8
aS'false(reach)'
p149
aF47.839593483
aS'correct'
p150
aI0
aI9
aS'false(reach)'
p151
aF48.059860623
aS'correct'
p152
aI0
aI10
aS'false(reach)'
p153
aF47.642540646
aS'correct'
p154
asS'../../c/ssh/s3_srvr.blast.11_false-unreach-call.i.cil.c'
p155
(lp156
I0
aI1
aS'true'
p157
aI500000000
aS'wrong'
p158
aI0
aI2
aS'true'
p159
aI500000000
aS'wrong'
p160
aI0
aI3
aS'true'
p161
aI500000000
aS'wrong'
p162
aI0
aI4
aS'true'
p163
aI500000000
aS'wrong'
p164
aI0
aI5
aS'false(reach)'
p165
aF34.698153418
aS'correct'
p166
aI0
aI6
aS'false(reach)'
p167
aF34.839870456
aS'correct'
p168
aI0
aI7
aS'false(reach)'
p169
aF34.55790427
aS'correct'
p170
aI0
aI8
aS'false(reach)'
p171
aF34.969141099
aS'correct'
p172
aI0
aI9
aS'false(reach)'
p173
aF34.673135155
aS'correct'
p174
aI0
aI10
aS'false(reach)'
p175
aF34.655127658
aS'correct'
p176
asS'../../c/ssh-simplified/s3_clnt_4_true-unreach-call.cil.c'
p177
(lp178
I0
aI1
aS'true'
p179
aF4.504066776
aS'correct'
p180
aI0
aI2
aS'true'
p181
aF4.787055842
aS'correct'
p182
aI0
aI3
aS'true'
p183
aF5.104489923
aS'correct'
p184
aI0
aI4
aS'true'
p185
aF5.659634914
aS'correct'
p186
aI0
aI5
aS'true'
p187
aF6.266083125
aS'correct'
p188
aI0
aI6
aS'true'
p189
aF7.191233119
aS'correct'
p190
aI0
aI7
aS'true'
p191
aF8.887344867
aS'correct'
p192
aI0
aI8
aS'true'
p193
aF11.266595734
aS'correct'
p194
aI0
aI9
aS'true'
p195
aF13.992430047
aS'correct'
p196
aI0
aI10
aS'true'
p197
aF17.506983842
aS'correct'
p198
asS'../../c/ssh/s3_clnt.blast.02_true-unreach-call.i.cil.c'
p199
(lp200
I0
aI1
aS'true'
p201
aF5.981221454
aS'correct'
p202
aI0
aI2
aS'true'
p203
aF6.520115638
aS'correct'
p204
aI0
aI3
aS'true'
p205
aF7.94950134
aS'correct'
p206
aI0
aI4
aS'true'
p207
aF11.069344721
aS'correct'
p208
aI0
aI5
aS'true'
p209
aF16.706734422
aS'correct'
p210
aI0
aI6
aS'true'
p211
aF101.441157348
aS'correct'
p212
aI0
aI7
aS'true'
p213
aF168.400265516
aS'correct'
p214
aI0
aI8
aS'TIMEOUT'
p215
aI500000000
aS'error'
p216
aI0
aI9
aS'TIMEOUT'
p217
aI500000000
aS'error'
p218
aI0
aI10
aS'TIMEOUT'
p219
aI500000000
aS'error'
p220
asS'../../c/ssh/s3_srvr.blast.03_false-unreach-call.i.cil.c'
p221
(lp222
I0
aI1
aS'true'
p223
aI500000000
aS'wrong'
p224
aI0
aI2
aS'true'
p225
aI500000000
aS'wrong'
p226
aI0
aI3
aS'true'
p227
aI500000000
aS'wrong'
p228
aI0
aI4
aS'false(reach)'
p229
aF12.798249587
aS'correct'
p230
aI0
aI5
aS'false(reach)'
p231
aF12.887836089
aS'correct'
p232
aI0
aI6
aS'false(reach)'
p233
aF12.571333987
aS'correct'
p234
aI0
aI7
aS'false(reach)'
p235
aF12.835955626
aS'correct'
p236
aI0
aI8
aS'false(reach)'
p237
aF12.837812045
aS'correct'
p238
aI0
aI9
aS'false(reach)'
p239
aF12.85021848
aS'correct'
p240
aI0
aI10
aS'false(reach)'
p241
aF12.771209053
aS'correct'
p242
asS'../../c/ssh/s3_srvr.blast.02_false-unreach-call.i.cil.c'
p243
(lp244
I0
aI1
aS'true'
p245
aI500000000
aS'wrong'
p246
aI0
aI2
aS'true'
p247
aI500000000
aS'wrong'
p248
aI0
aI3
aS'true'
p249
aI500000000
aS'wrong'
p250
aI0
aI4
aS'false(reach)'
p251
aF12.78745332
aS'correct'
p252
aI0
aI5
aS'false(reach)'
p253
aF12.91143479
aS'correct'
p254
aI0
aI6
aS'false(reach)'
p255
aF12.994706574
aS'correct'
p256
aI0
aI7
aS'false(reach)'
p257
aF12.908143761
aS'correct'
p258
aI0
aI8
aS'false(reach)'
p259
aF12.969661673
aS'correct'
p260
aI0
aI9
aS'false(reach)'
p261
aF12.899802371
aS'correct'
p262
aI0
aI10
aS'false(reach)'
p263
aF12.816003359
aS'correct'
p264
asS'../../c/locks/test_locks_9_true-unreach-call_true-valid-memsafety_false-termination.c'
p265
(lp266
I0
aI1
aS'true'
p267
aF3.334549614
aS'correct'
p268
aI0
aI2
aS'true'
p269
aF3.336784304
aS'correct'
p270
aI0
aI3
aS'true'
p271
aF3.387930084
aS'correct'
p272
aI0
aI4
aS'true'
p273
aF3.422350432
aS'correct'
p274
aI0
aI5
aS'true'
p275
aF3.358921404
aS'correct'
p276
aI0
aI6
aS'true'
p277
aF3.354350833
aS'correct'
p278
aI0
aI7
aS'true'
p279
aF3.409174221
aS'correct'
p280
aI0
aI8
aS'true'
p281
aF3.422359337
aS'correct'
p282
aI0
aI9
aS'true'
p283
aF3.433177422
aS'correct'
p284
aI0
aI10
aS'true'
p285
aF3.431726655
aS'correct'
p286
asS'../../c/ntdrivers-simplified/floppy_simpl4_true-unreach-call_true-valid-memsafety_true-termination.cil.c'
p287
(lp288
I0
aI1
aS'true'
p289
aF58.787148849
aS'correct'
p290
aI0
aI2
aS'true'
p291
aF59.803781642
aS'correct'
p292
aI0
aI3
aS'true'
p293
aF61.170510082
aS'correct'
p294
aI0
aI4
aS'true'
p295
aF62.452965329
aS'correct'
p296
aI0
aI5
aS'true'
p297
aF63.02522364
aS'correct'
p298
aI0
aI6
aS'true'
p299
aF64.276179435
aS'correct'
p300
aI0
aI7
aS'true'
p301
aF65.546354969
aS'correct'
p302
aI0
aI8
aS'true'
p303
aF67.238313008
aS'correct'
p304
aI0
aI9
aS'true'
p305
aF68.201271585
aS'correct'
p306
aI0
aI10
aS'true'
p307
aF69.245489814
aS'correct'
p308
asS'../../c/locks/test_locks_10_true-unreach-call_true-valid-memsafety_false-termination.c'
p309
(lp310
I0
aI1
aS'true'
p311
aF3.546040676
aS'correct'
p312
aI0
aI2
aS'true'
p313
aF3.649183788
aS'correct'
p314
aI0
aI3
aS'true'
p315
aF3.500056079
aS'correct'
p316
aI0
aI4
aS'true'
p317
aF3.493331736
aS'correct'
p318
aI0
aI5
aS'true'
p319
aF3.533838122
aS'correct'
p320
aI0
aI6
aS'true'
p321
aF3.466445496
aS'correct'
p322
aI0
aI7
aS'true'
p323
aF3.471762992
aS'correct'
p324
aI0
aI8
aS'true'
p325
aF3.475100479
aS'correct'
p326
aI0
aI9
aS'true'
p327
aF3.494943786
aS'correct'
p328
aI0
aI10
aS'true'
p329
aF3.482760579
aS'correct'
p330
asS'../../c/ssh-simplified/s3_clnt_4_false-unreach-call.cil.c'
p331
(lp332
I0
aI1
aS'true'
p333
aI500000000
aS'wrong'
p334
aI0
aI2
aS'true'
p335
aI500000000
aS'wrong'
p336
aI0
aI3
aS'true'
p337
aI500000000
aS'wrong'
p338
aI0
aI4
aS'true'
p339
aI500000000
aS'wrong'
p340
aI0
aI5
aS'true'
p341
aI500000000
aS'wrong'
p342
aI0
aI6
aS'false(reach)'
p343
aF8.35104745
aS'correct'
p344
aI0
aI7
aS'false(reach)'
p345
aF8.424919638
aS'correct'
p346
aI0
aI8
aS'false(reach)'
p347
aF8.293536801
aS'correct'
p348
aI0
aI9
aS'false(reach)'
p349
aF8.289805298
aS'correct'
p350
aI0
aI10
aS'false(reach)'
p351
aF8.485599301
aS'correct'
p352
asS'../../c/ssh/s3_srvr.blast.06_true-unreach-call.i.cil.c'
p353
(lp354
I0
aI1
aS'true'
p355
aF7.650989587
aS'correct'
p356
aI0
aI2
aS'true'
p357
aF8.282693892
aS'correct'
p358
aI0
aI3
aS'true'
p359
aF10.250874152
aS'correct'
p360
aI0
aI4
aS'true'
p361
aF14.615783696
aS'correct'
p362
aI0
aI5
aS'true'
p363
aF23.650368328
aS'correct'
p364
aI0
aI6
aS'true'
p365
aF42.283667723
aS'correct'
p366
aI0
aI7
aS'true'
p367
aF78.102907657
aS'correct'
p368
aI0
aI8
aS'true'
p369
aF142.959657223
aS'correct'
p370
aI0
aI9
aS'true'
p371
aF247.65362996
aS'correct'
p372
aI0
aI10
aS'true'
p373
aF516.679492171
aS'correct'
p374
asS'../../c/ntdrivers-simplified/kbfiltr_simpl1_true-unreach-call_true-valid-memsafety_true-termination.cil.c'
p375
(lp376
I0
aI1
aS'true'
p377
aF20.878678919
aS'correct'
p378
aI0
aI2
aS'true'
p379
aF20.844121231
aS'correct'
p380
aI0
aI3
aS'true'
p381
aF20.701817119
aS'correct'
p382
aI0
aI4
aS'true'
p383
aF20.991311146
aS'correct'
p384
aI0
aI5
aS'true'
p385
aF20.780150761
aS'correct'
p386
aI0
aI6
aS'true'
p387
aF20.998554292
aS'correct'
p388
aI0
aI7
aS'true'
p389
aF21.03721628
aS'correct'
p390
aI0
aI8
aS'true'
p391
aF20.859771976
aS'correct'
p392
aI0
aI9
aS'true'
p393
aF20.950639447
aS'correct'
p394
aI0
aI10
aS'true'
p395
aF20.577219654
aS'correct'
p396
asS'../../c/ssh/s3_srvr.blast.07_true-unreach-call.i.cil.c'
p397
(lp398
I0
aI1
aS'true'
p399
aF6.962003531
aS'correct'
p400
aI0
aI2
aS'true'
p401
aF7.957409481
aS'correct'
p402
aI0
aI3
aS'true'
p403
aF11.064793054
aS'correct'
p404
aI0
aI4
aS'true'
p405
aF17.833391595
aS'correct'
p406
aI0
aI5
aS'true'
p407
aF33.629265535
aS'correct'
p408
aI0
aI6
aS'true'
p409
aF107.911611221
aS'correct'
p410
aI0
aI7
aS'true'
p411
aF276.046772378
aS'correct'
p412
aI0
aI8
aS'TIMEOUT'
p413
aI500000000
aS'error'
p414
aI0
aI9
aS'TIMEOUT'
p415
aI500000000
aS'error'
p416
aI0
aI10
aS'TIMEOUT'
p417
aI500000000
aS'error'
p418
asS'../../c/ssh/s3_srvr.blast.09_true-unreach-call.i.cil.c'
p419
(lp420
I0
aI1
aS'true'
p421
aF6.925979587
aS'correct'
p422
aI0
aI2
aS'true'
p423
aF7.960852889
aS'correct'
p424
aI0
aI3
aS'true'
p425
aF11.008327922
aS'correct'
p426
aI0
aI4
aS'true'
p427
aF17.701004414
aS'correct'
p428
aI0
aI5
aS'true'
p429
aF33.228206084
aS'correct'
p430
aI0
aI6
aS'true'
p431
aF102.176143763
aS'correct'
p432
aI0
aI7
aS'true'
p433
aF303.225142722
aS'correct'
p434
aI0
aI8
aS'TIMEOUT'
p435
aI500000000
aS'error'
p436
aI0
aI9
aS'TIMEOUT'
p437
aI500000000
aS'error'
p438
aI0
aI10
aS'TIMEOUT'
p439
aI500000000
aS'error'
p440
asS'../../c/ssh-simplified/s3_srvr_1_true-unreach-call.cil.c'
p441
(lp442
I0
aI1
aS'true'
p443
aF4.891354717
aS'correct'
p444
aI0
aI2
aS'true'
p445
aF5.329837575
aS'correct'
p446
aI0
aI3
aS'true'
p447
aF6.509556774
aS'correct'
p448
aI0
aI4
aS'true'
p449
aF8.18931485
aS'correct'
p450
aI0
aI5
aS'true'
p451
aF10.058284647
aS'correct'
p452
aI0
aI6
aS'true'
p453
aF12.47465345
aS'correct'
p454
aI0
aI7
aS'true'
p455
aF15.230048499
aS'correct'
p456
aI0
aI8
aS'true'
p457
aF18.763537343
aS'correct'
p458
aI0
aI9
aS'true'
p459
aF22.334955676
aS'correct'
p460
aI0
aI10
aS'true'
p461
aF26.500203132
aS'correct'
p462
asS'../../c/ntdrivers-simplified/kbfiltr_simpl2_true-unreach-call_true-valid-memsafety_true-termination.cil.c'
p463
(lp464
I0
aI1
aS'true'
p465
aF22.843095313
aS'correct'
p466
aI0
aI2
aS'true'
p467
aF23.416427458
aS'correct'
p468
aI0
aI3
aS'true'
p469
aF22.852405874
aS'correct'
p470
aI0
aI4
aS'true'
p471
aF22.683522306
aS'correct'
p472
aI0
aI5
aS'true'
p473
aF22.858417381
aS'correct'
p474
aI0
aI6
aS'true'
p475
aF23.071670582
aS'correct'
p476
aI0
aI7
aS'true'
p477
aF22.560450903
aS'correct'
p478
aI0
aI8
aS'true'
p479
aF23.086368063
aS'correct'
p480
aI0
aI9
aS'true'
p481
aF22.766014342
aS'correct'
p482
aI0
aI10
aS'true'
p483
aF22.594668626
aS'correct'
p484
asS'../../c/ssh-simplified/s3_srvr_2_false-unreach-call.cil.c'
p485
(lp486
I0
aI1
aS'true'
p487
aI500000000
aS'wrong'
p488
aI0
aI2
aS'true'
p489
aI500000000
aS'wrong'
p490
aI0
aI3
aS'true'
p491
aI500000000
aS'wrong'
p492
aI0
aI4
aS'false(reach)'
p493
aF7.634269564
aS'correct'
p494
aI0
aI5
aS'false(reach)'
p495
aF7.665636036
aS'correct'
p496
aI0
aI6
aS'false(reach)'
p497
aF7.437639448
aS'correct'
p498
aI0
aI7
aS'false(reach)'
p499
aF7.5002798
aS'correct'
p500
aI0
aI8
aS'false(reach)'
p501
aF7.494313855
aS'correct'
p502
aI0
aI9
aS'false(reach)'
p503
aF7.497227401
aS'correct'
p504
aI0
aI10
aS'false(reach)'
p505
aF7.555876811
aS'correct'
p506
asS'../../c/ntdrivers/cdaudio_false-unreach-call.i.cil.c'
p507
(lp508
I0
aI1
aS'TIMEOUT'
p509
aI500000000
aS'error'
p510
aI0
aI2
aS'TIMEOUT'
p511
aI500000000
aS'error'
p512
aI0
aI3
aS'TIMEOUT'
p513
aI500000000
aS'error'
p514
aI0
aI4
aS'TIMEOUT'
p515
aI500000000
aS'error'
p516
aI0
aI5
aS'TIMEOUT'
p517
aI500000000
aS'error'
p518
aI0
aI6
aS'TIMEOUT'
p519
aI500000000
aS'error'
p520
aI0
aI7
aS'TIMEOUT'
p521
aI500000000
aS'error'
p522
aI0
aI8
aS'TIMEOUT'
p523
aI500000000
aS'error'
p524
aI0
aI9
aS'TIMEOUT'
p525
aI500000000
aS'error'
p526
aI0
aI10
aS'TIMEOUT'
p527
aI500000000
aS'error'
p528
asS'../../c/ntdrivers-simplified/cdaudio_simpl1_true-unreach-call_true-valid-memsafety_true-termination.cil.c'
p529
(lp530
I0
aI1
aS'true'
p531
aF72.634274945
aS'correct'
p532
aI0
aI2
aS'true'
p533
aF72.344557821
aS'correct'
p534
aI0
aI3
aS'true'
p535
aF72.230116453
aS'correct'
p536
aI0
aI4
aS'true'
p537
aF71.626239051
aS'correct'
p538
aI0
aI5
aS'true'
p539
aF72.118352486
aS'correct'
p540
aI0
aI6
aS'true'
p541
aF71.768047962
aS'correct'
p542
aI0
aI7
aS'true'
p543
aF71.834809135
aS'correct'
p544
aI0
aI8
aS'true'
p545
aF71.957270566
aS'correct'
p546
aI0
aI9
aS'true'
p547
aF72.404151488
aS'correct'
p548
aI0
aI10
aS'true'
p549
aF72.201035254
aS'correct'
p550
asS'../../c/ssh/s3_srvr.blast.14_true-unreach-call.i.cil.c'
p551
(lp552
I0
aI1
aS'true'
p553
aF7.236893294
aS'correct'
p554
aI0
aI2
aS'true'
p555
aF8.17461705
aS'correct'
p556
aI0
aI3
aS'true'
p557
aF9.961653749
aS'correct'
p558
aI0
aI4
aS'true'
p559
aF13.829124872
aS'correct'
p560
aI0
aI5
aS'true'
p561
aF22.14762285
aS'correct'
p562
aI0
aI6
aS'true'
p563
aF39.588611049
aS'correct'
p564
aI0
aI7
aS'true'
p565
aF70.798690264
aS'correct'
p566
aI0
aI8
aS'true'
p567
aF124.039529222
aS'correct'
p568
aI0
aI9
aS'true'
p569
aF241.533806215
aS'correct'
p570
aI0
aI10
aS'true'
p571
aF502.78014042
aS'correct'
p572
asS'../../c/ntdrivers/diskperf_false-unreach-call.i.cil.c'
p573
(lp574
I0
aI1
aS'false(reach)'
p575
aF54.081049963
aS'correct'
p576
aI0
aI2
aS'false(reach)'
p577
aF54.482171588
aS'correct'
p578
aI0
aI3
aS'false(reach)'
p579
aF55.075528315
aS'correct'
p580
aI0
aI4
aS'false(reach)'
p581
aF54.028824372
aS'correct'
p582
aI0
aI5
aS'false(reach)'
p583
aF54.503415141
aS'correct'
p584
aI0
aI6
aS'false(reach)'
p585
aF54.448077408
aS'correct'
p586
aI0
aI7
aS'false(reach)'
p587
aF55.048242429
aS'correct'
p588
aI0
aI8
aS'false(reach)'
p589
aF55.63599192
aS'correct'
p590
aI0
aI9
aS'false(reach)'
p591
aF53.98351082
aS'correct'
p592
aI0
aI10
aS'false(reach)'
p593
aF54.229551629
aS'correct'
p594
asS'../../c/ntdrivers-simplified/diskperf_simpl1_true-unreach-call_true-valid-memsafety_true-termination.cil.c'
p595
(lp596
I0
aI1
aS'true'
p597
aF44.767643776
aS'correct'
p598
aI0
aI2
aS'true'
p599
aF44.852026085
aS'correct'
p600
aI0
aI3
aS'true'
p601
aF44.836074242
aS'correct'
p602
aI0
aI4
aS'true'
p603
aF44.929175638
aS'correct'
p604
aI0
aI5
aS'true'
p605
aF45.089888347
aS'correct'
p606
aI0
aI6
aS'true'
p607
aF45.074351119
aS'correct'
p608
aI0
aI7
aS'true'
p609
aF44.998850685
aS'correct'
p610
aI0
aI8
aS'true'
p611
aF44.482857645
aS'correct'
p612
aI0
aI9
aS'true'
p613
aF44.586871564
aS'correct'
p614
aI0
aI10
aS'true'
p615
aF45.026946794
aS'correct'
p616
asS'../../c/ssh/s3_srvr.blast.08_false-unreach-call.i.cil.c'
p617
(lp618
I0
aI1
aS'true'
p619
aI500000000
aS'wrong'
p620
aI0
aI2
aS'true'
p621
aI500000000
aS'wrong'
p622
aI0
aI3
aS'true'
p623
aI500000000
aS'wrong'
p624
aI0
aI4
aS'true'
p625
aI500000000
aS'wrong'
p626
aI0
aI5
aS'true'
p627
aI500000000
aS'wrong'
p628
aI0
aI6
aS'true'
p629
aI500000000
aS'wrong'
p630
aI0
aI7
aS'TIMEOUT'
p631
aI500000000
aS'error'
p632
aI0
aI8
aS'TIMEOUT'
p633
aI500000000
aS'error'
p634
aI0
aI9
aS'TIMEOUT'
p635
aI500000000
aS'error'
p636
aI0
aI10
aS'TIMEOUT'
p637
aI500000000
aS'error'
p638
asS'../../c/ntdrivers/diskperf_true-unreach-call.i.cil.c'
p639
(lp640
I0
aI1
aS'true'
p641
aF147.923152441
aS'correct'
p642
aI0
aI2
aS'true'
p643
aF145.848502901
aS'correct'
p644
aI0
aI3
aS'true'
p645
aF147.403150731
aS'correct'
p646
aI0
aI4
aS'true'
p647
aF146.527622981
aS'correct'
p648
aI0
aI5
aS'true'
p649
aF144.288967026
aS'correct'
p650
aI0
aI6
aS'true'
p651
aF145.178679866
aS'correct'
p652
aI0
aI7
aS'true'
p653
aF146.712030676
aS'correct'
p654
aI0
aI8
aS'true'
p655
aF146.051589363
aS'correct'
p656
aI0
aI9
aS'true'
p657
aF147.974009451
aS'correct'
p658
aI0
aI10
aS'true'
p659
aF146.67591794
aS'correct'
p660
asS'../../c/ssh-simplified/s3_srvr_6_true-unreach-call.cil.c'
p661
(lp662
I0
aI1
aS'true'
p663
aF5.317074963
aS'correct'
p664
aI0
aI2
aS'true'
p665
aF5.629822874
aS'correct'
p666
aI0
aI3
aS'true'
p667
aF6.250731567
aS'correct'
p668
aI0
aI4
aS'true'
p669
aF6.982153512
aS'correct'
p670
aI0
aI5
aS'true'
p671
aF8.379784269
aS'correct'
p672
aI0
aI6
aS'true'
p673
aF10.543479564
aS'correct'
p674
aI0
aI7
aS'true'
p675
aF14.693567827
aS'correct'
p676
aI0
aI8
aS'true'
p677
aF20.288496047
aS'correct'
p678
aI0
aI9
aS'true'
p679
aF27.787773934
aS'correct'
p680
aI0
aI10
aS'true'
p681
aF39.868144583
aS'correct'
p682
asS'../../c/ntdrivers/floppy_true-unreach-call_true-valid-memsafety.i.cil.c'
p683
(lp684
I0
aI1
aS'true'
p685
aF300.200155787
aS'correct'
p686
aI0
aI2
aS'true'
p687
aF302.023534899
aS'correct'
p688
aI0
aI3
aS'true'
p689
aF302.56295738
aS'correct'
p690
aI0
aI4
aS'true'
p691
aF306.005120312
aS'correct'
p692
aI0
aI5
aS'true'
p693
aF311.900198441
aS'correct'
p694
aI0
aI6
aS'true'
p695
aF312.340375504
aS'correct'
p696
aI0
aI7
aS'true'
p697
aF316.646058075
aS'correct'
p698
aI0
aI8
aS'true'
p699
aF316.58113013
aS'correct'
p700
aI0
aI9
aS'true'
p701
aF321.34987847
aS'correct'
p702
aI0
aI10
aS'true'
p703
aF319.338651151
aS'correct'
p704
asS'../../c/ssh-simplified/s3_srvr_8_true-unreach-call.cil.c'
p705
(lp706
I0
aI1
aS'true'
p707
aF4.935455778
aS'correct'
p708
aI0
aI2
aS'true'
p709
aF5.263671085
aS'correct'
p710
aI0
aI3
aS'true'
p711
aF5.686168629
aS'correct'
p712
aI0
aI4
aS'true'
p713
aF6.46850983
aS'correct'
p714
aI0
aI5
aS'true'
p715
aF7.681150071
aS'correct'
p716
aI0
aI6
aS'true'
p717
aF9.611122931
aS'correct'
p718
aI0
aI7
aS'true'
p719
aF12.220554254
aS'correct'
p720
aI0
aI8
aS'true'
p721
aF15.510447552
aS'correct'
p722
aI0
aI9
aS'true'
p723
aF19.423795552
aS'correct'
p724
aI0
aI10
aS'true'
p725
aF23.492919517
aS'correct'
p726
asS'../../c/ssh/s3_srvr.blast.13_true-unreach-call.i.cil.c'
p727
(lp728
I0
aI1
aS'true'
p729
aF7.00062245
aS'correct'
p730
aI0
aI2
aS'true'
p731
aF7.931007445
aS'correct'
p732
aI0
aI3
aS'true'
p733
aF10.823295586
aS'correct'
p734
aI0
aI4
aS'true'
p735
aF17.542802347
aS'correct'
p736
aI0
aI5
aS'true'
p737
aF32.422492182
aS'correct'
p738
aI0
aI6
aS'true'
p739
aF107.76695091
aS'correct'
p740
aI0
aI7
aS'TIMEOUT'
p741
aI500000000
aS'error'
p742
aI0
aI8
aS'TIMEOUT'
p743
aI500000000
aS'error'
p744
aI0
aI9
aS'TIMEOUT'
p745
aI500000000
aS'error'
p746
aI0
aI10
aS'TIMEOUT'
p747
aI500000000
aS'error'
p748
asS'../../c/ssh-simplified/s3_srvr_12_false-unreach-call.cil.c'
p749
(lp750
I0
aI1
aS'true'
p751
aI500000000
aS'wrong'
p752
aI0
aI2
aS'true'
p753
aI500000000
aS'wrong'
p754
aI0
aI3
aS'true'
p755
aI500000000
aS'wrong'
p756
aI0
aI4
aS'true'
p757
aI500000000
aS'wrong'
p758
aI0
aI5
aS'true'
p759
aI500000000
aS'wrong'
p760
aI0
aI6
aS'false(reach)'
p761
aF16.012856574
aS'correct'
p762
aI0
aI7
aS'false(reach)'
p763
aF15.945285129
aS'correct'
p764
aI0
aI8
aS'false(reach)'
p765
aF15.804728986
aS'correct'
p766
aI0
aI9
aS'false(reach)'
p767
aF15.885073355
aS'correct'
p768
aI0
aI10
aS'false(reach)'
p769
aF16.004414003
aS'correct'
p770
asS'../../c/ssh-simplified/s3_srvr_4_true-unreach-call.cil.c'
p771
(lp772
I0
aI1
aS'true'
p773
aF4.988764017
aS'correct'
p774
aI0
aI2
aS'true'
p775
aF5.208892204
aS'correct'
p776
aI0
aI3
aS'true'
p777
aF5.558489348
aS'correct'
p778
aI0
aI4
aS'true'
p779
aF6.36780142
aS'correct'
p780
aI0
aI5
aS'true'
p781
aF7.538252225
aS'correct'
p782
aI0
aI6
aS'true'
p783
aF9.440562786
aS'correct'
p784
aI0
aI7
aS'true'
p785
aF12.022493006
aS'correct'
p786
aI0
aI8
aS'true'
p787
aF15.034926466
aS'correct'
p788
aI0
aI9
aS'true'
p789
aF18.380979164
aS'correct'
p790
aI0
aI10
aS'true'
p791
aF22.38253974
aS'correct'
p792
asS'../../c/ssh/s3_srvr.blast.10_false-unreach-call.i.cil.c'
p793
(lp794
I0
aI1
aS'true'
p795
aI500000000
aS'wrong'
p796
aI0
aI2
aS'true'
p797
aI500000000
aS'wrong'
p798
aI0
aI3
aS'true'
p799
aI500000000
aS'wrong'
p800
aI0
aI4
aS'true'
p801
aI500000000
aS'wrong'
p802
aI0
aI5
aS'true'
p803
aI500000000
aS'wrong'
p804
aI0
aI6
aS'true'
p805
aI500000000
aS'wrong'
p806
aI0
aI7
aS'TIMEOUT'
p807
aI500000000
aS'error'
p808
aI0
aI8
aS'TIMEOUT'
p809
aI500000000
aS'error'
p810
aI0
aI9
aS'TIMEOUT'
p811
aI500000000
aS'error'
p812
aI0
aI10
aS'TIMEOUT'
p813
aI500000000
aS'error'
p814
asS'../../c/locks/test_locks_5_true-unreach-call_true-valid-memsafety_false-termination.c'
p815
(lp816
I0
aI1
aS'true'
p817
aF3.403417121
aS'correct'
p818
aI0
aI2
aS'true'
p819
aF3.184266014
aS'correct'
p820
aI0
aI3
aS'true'
p821
aF3.228238245
aS'correct'
p822
aI0
aI4
aS'true'
p823
aF3.265073294
aS'correct'
p824
aI0
aI5
aS'true'
p825
aF3.198532272
aS'correct'
p826
aI0
aI6
aS'true'
p827
aF3.347223839
aS'correct'
p828
aI0
aI7
aS'true'
p829
aF3.18301407
aS'correct'
p830
aI0
aI8
aS'true'
p831
aF3.190849245
aS'correct'
p832
aI0
aI9
aS'true'
p833
aF3.31460332
aS'correct'
p834
aI0
aI10
aS'true'
p835
aF3.222262257
aS'correct'
p836
asS'../../c/ssh/s3_srvr.blast.06_false-unreach-call.i.cil.c'
p837
(lp838
I0
aI1
aS'true'
p839
aI500000000
aS'wrong'
p840
aI0
aI2
aS'true'
p841
aI500000000
aS'wrong'
p842
aI0
aI3
aS'true'
p843
aI500000000
aS'wrong'
p844
aI0
aI4
aS'true'
p845
aI500000000
aS'wrong'
p846
aI0
aI5
aS'true'
p847
aI500000000
aS'wrong'
p848
aI0
aI6
aS'false(reach)'
p849
aF59.161980862
aS'correct'
p850
aI0
aI7
aS'false(reach)'
p851
aF58.457518033
aS'correct'
p852
aI0
aI8
aS'false(reach)'
p853
aF59.086264127
aS'correct'
p854
aI0
aI9
aS'false(reach)'
p855
aF60.23257637
aS'correct'
p856
aI0
aI10
aS'false(reach)'
p857
aF58.514888989
aS'correct'
p858
asS'../../c/ssh/s3_clnt.blast.01_false-unreach-call.i.cil.c'
p859
(lp860
I0
aI1
aS'true'
p861
aI500000000
aS'wrong'
p862
aI0
aI2
aS'true'
p863
aI500000000
aS'wrong'
p864
aI0
aI3
aS'true'
p865
aI500000000
aS'wrong'
p866
aI0
aI4
aS'true'
p867
aI500000000
aS'wrong'
p868
aI0
aI5
aS'true'
p869
aI500000000
aS'wrong'
p870
aI0
aI6
aS'true'
p871
aI500000000
aS'wrong'
p872
aI0
aI7
aS'false(reach)'
p873
aF91.209798101
aS'correct'
p874
aI0
aI8
aS'false(reach)'
p875
aF90.790952467
aS'correct'
p876
aI0
aI9
aS'false(reach)'
p877
aF92.543577442
aS'correct'
p878
aI0
aI10
aS'false(reach)'
p879
aF90.334996839
aS'correct'
p880
asS'../../c/ntdrivers-simplified/cdaudio_simpl1_false-unreach-call_true-valid-memsafety_true-termination.cil.c'
p881
(lp882
I0
aI1
aS'false(reach)'
p883
aF62.770802281
aS'correct'
p884
aI0
aI2
aS'false(reach)'
p885
aF62.147101077
aS'correct'
p886
aI0
aI3
aS'false(reach)'
p887
aF62.484634863
aS'correct'
p888
aI0
aI4
aS'false(reach)'
p889
aF62.628933653
aS'correct'
p890
aI0
aI5
aS'false(reach)'
p891
aF62.159931499
aS'correct'
p892
aI0
aI6
aS'false(reach)'
p893
aF61.991678199
aS'correct'
p894
aI0
aI7
aS'false(reach)'
p895
aF61.755384608
aS'correct'
p896
aI0
aI8
aS'false(reach)'
p897
aF62.046217555
aS'correct'
p898
aI0
aI9
aS'false(reach)'
p899
aF61.937047354
aS'correct'
p900
aI0
aI10
aS'false(reach)'
p901
aF62.25189269
aS'correct'
p902
asS'../../c/locks/test_locks_7_true-unreach-call_true-valid-memsafety_false-termination.c'
p903
(lp904
I0
aI1
aS'true'
p905
aF3.348082146
aS'correct'
p906
aI0
aI2
aS'true'
p907
aF3.330996203
aS'correct'
p908
aI0
aI3
aS'true'
p909
aF3.312275227
aS'correct'
p910
aI0
aI4
aS'true'
p911
aF3.295535825
aS'correct'
p912
aI0
aI5
aS'true'
p913
aF3.250288341
aS'correct'
p914
aI0
aI6
aS'true'
p915
aF3.208491116
aS'correct'
p916
aI0
aI7
aS'true'
p917
aF3.278929468
aS'correct'
p918
aI0
aI8
aS'true'
p919
aF3.221232596
aS'correct'
p920
aI0
aI9
aS'true'
p921
aF3.330978826
aS'correct'
p922
aI0
aI10
aS'true'
p923
aF3.192340919
aS'correct'
p924
asS'../../c/locks/test_locks_12_true-unreach-call_true-valid-memsafety_false-termination.c'
p925
(lp926
I0
aI1
aS'true'
p927
aF4.238978093
aS'correct'
p928
aI0
aI2
aS'true'
p929
aF4.182198042
aS'correct'
p930
aI0
aI3
aS'true'
p931
aF4.11903987
aS'correct'
p932
aI0
aI4
aS'true'
p933
aF4.163939938
aS'correct'
p934
aI0
aI5
aS'true'
p935
aF4.100962659
aS'correct'
p936
aI0
aI6
aS'true'
p937
aF4.16781791
aS'correct'
p938
aI0
aI7
aS'true'
p939
aF4.12543097
aS'correct'
p940
aI0
aI8
aS'true'
p941
aF4.147865566
aS'correct'
p942
aI0
aI9
aS'true'
p943
aF4.191153387
aS'correct'
p944
aI0
aI10
aS'true'
p945
aF4.151967845
aS'correct'
p946
asS'../../c/ssh-simplified/s3_srvr_1a_true-unreach-call_false-termination.cil.c'
p947
(lp948
I0
aI1
aS'true'
p949
aF3.400112271
aS'correct'
p950
aI0
aI2
aS'true'
p951
aF3.521348338
aS'correct'
p952
aI0
aI3
aS'true'
p953
aF3.539113196
aS'correct'
p954
aI0
aI4
aS'true'
p955
aF3.598619993
aS'correct'
p956
aI0
aI5
aS'true'
p957
aF3.68267485
aS'correct'
p958
aI0
aI6
aS'true'
p959
aF3.8230189
aS'correct'
p960
aI0
aI7
aS'true'
p961
aF4.020856724
aS'correct'
p962
aI0
aI8
aS'true'
p963
aF4.21755314
aS'correct'
p964
aI0
aI9
aS'true'
p965
aF4.517487705
aS'correct'
p966
aI0
aI10
aS'true'
p967
aF4.839457129
aS'correct'
p968
asS'../../c/ssh-simplified/s3_srvr_1b_true-unreach-call_false-termination.cil.c'
p969
(lp970
I0
aI1
aS'true'
p971
aF3.234732561
aS'correct'
p972
aI0
aI2
aS'true'
p973
aF3.259813852
aS'correct'
p974
aI0
aI3
aS'true'
p975
aF3.268368383
aS'correct'
p976
aI0
aI4
aS'true'
p977
aF3.347769662
aS'correct'
p978
aI0
aI5
aS'true'
p979
aF3.39019691
aS'correct'
p980
aI0
aI6
aS'true'
p981
aF3.415406617
aS'correct'
p982
aI0
aI7
aS'true'
p983
aF3.566677509
aS'correct'
p984
aI0
aI8
aS'true'
p985
aF3.622132124
aS'correct'
p986
aI0
aI9
aS'true'
p987
aF3.707644543
aS'correct'
p988
aI0
aI10
aS'true'
p989
aF3.885847794
aS'correct'
p990
asS'../../c/ntdrivers/floppy_false-unreach-call.i.cil.c'
p991
(lp992
I0
aI1
aS'false(reach)'
p993
aF65.957709327
aS'correct'
p994
aI0
aI2
aS'false(reach)'
p995
aF65.466617754
aS'correct'
p996
aI0
aI3
aS'false(reach)'
p997
aF65.350842916
aS'correct'
p998
aI0
aI4
aS'false(reach)'
p999
aF65.147417663
aS'correct'
p1000
aI0
aI5
aS'false(reach)'
p1001
aF66.774965901
aS'correct'
p1002
aI0
aI6
aS'false(reach)'
p1003
aF64.504905344
aS'correct'
p1004
aI0
aI7
aS'false(reach)'
p1005
aF65.867982118
aS'correct'
p1006
aI0
aI8
aS'false(reach)'
p1007
aF65.242173539
aS'correct'
p1008
aI0
aI9
aS'false(reach)'
p1009
aF65.821448007
aS'correct'
p1010
aI0
aI10
aS'false(reach)'
p1011
aF65.287248538
aS'correct'
p1012
asS'../../c/ssh/s3_clnt.blast.03_true-unreach-call.i.cil.c'
p1013
(lp1014
I0
aI1
aS'true'
p1015
aF6.059412629
aS'correct'
p1016
aI0
aI2
aS'true'
p1017
aF6.624743901
aS'correct'
p1018
aI0
aI3
aS'true'
p1019
aF7.978852783
aS'correct'
p1020
aI0
aI4
aS'true'
p1021
aF11.000206313
aS'correct'
p1022
aI0
aI5
aS'true'
p1023
aF16.716334065
aS'correct'
p1024
aI0
aI6
aS'true'
p1025
aF106.432755813
aS'correct'
p1026
aI0
aI7
aS'true'
p1027
aF188.730961244
aS'correct'
p1028
aI0
aI8
aS'TIMEOUT'
p1029
aI500000000
aS'error'
p1030
aI0
aI9
aS'TIMEOUT'
p1031
aI500000000
aS'error'
p1032
aI0
aI10
aS'TIMEOUT'
p1033
aI500000000
aS'error'
p1034
asS'../../c/ssh-simplified/s3_clnt_3_true-unreach-call.cil.c'
p1035
(lp1036
I0
aI1
aS'true'
p1037
aF4.503790766
aS'correct'
p1038
aI0
aI2
aS'true'
p1039
aF4.79550455
aS'correct'
p1040
aI0
aI3
aS'true'
p1041
aF5.177395332
aS'correct'
p1042
aI0
aI4
aS'true'
p1043
aF5.635161846
aS'correct'
p1044
aI0
aI5
aS'true'
p1045
aF6.351844589
aS'correct'
p1046
aI0
aI6
aS'true'
p1047
aF7.269286779
aS'correct'
p1048
aI0
aI7
aS'true'
p1049
aF8.928496896
aS'correct'
p1050
aI0
aI8
aS'true'
p1051
aF11.391749223
aS'correct'
p1052
aI0
aI9
aS'true'
p1053
aF14.391425666
aS'correct'
p1054
aI0
aI10
aS'true'
p1055
aF17.559716859
aS'correct'
p1056
asS'../../c/ntdrivers/parport_true-unreach-call.i.cil.c'
p1057
(lp1058
I0
aI1
aS'true'
p1059
aF96.315020136
aS'correct'
p1060
aI0
aI2
aS'true'
p1061
aF93.396662156
aS'correct'
p1062
aI0
aI3
aS'true'
p1063
aF95.094314698
aS'correct'
p1064
aI0
aI4
aS'true'
p1065
aF94.833957154
aS'correct'
p1066
aI0
aI5
aS'true'
p1067
aF93.465556619
aS'correct'
p1068
aI0
aI6
aS'true'
p1069
aF95.300019673
aS'correct'
p1070
aI0
aI7
aS'true'
p1071
aF94.663756998
aS'correct'
p1072
aI0
aI8
aS'true'
p1073
aF94.639091322
aS'correct'
p1074
aI0
aI9
aS'true'
p1075
aF94.130040114
aS'correct'
p1076
aI0
aI10
aS'true'
p1077
aF95.667655985
aS'correct'
p1078
asS'../../c/locks/test_locks_14_false-unreach-call_true-valid-memsafety_false-termination.c'
p1079
(lp1080
I0
aI1
aS'false(reach)'
p1081
aF4.577567005
aS'correct'
p1082
aI0
aI2
aS'false(reach)'
p1083
aF4.411687679
aS'correct'
p1084
aI0
aI3
aS'false(reach)'
p1085
aF4.383135895
aS'correct'
p1086
aI0
aI4
aS'false(reach)'
p1087
aF4.351122982
aS'correct'
p1088
aI0
aI5
aS'false(reach)'
p1089
aF4.420490198
aS'correct'
p1090
aI0
aI6
aS'false(reach)'
p1091
aF4.363549965
aS'correct'
p1092
aI0
aI7
aS'false(reach)'
p1093
aF4.40623374
aS'correct'
p1094
aI0
aI8
aS'false(reach)'
p1095
aF4.329266647
aS'correct'
p1096
aI0
aI9
aS'false(reach)'
p1097
aF4.396570213
aS'correct'
p1098
aI0
aI10
aS'false(reach)'
p1099
aF4.461928457
aS'correct'
p1100
asS'../../c/ssh-simplified/s3_srvr_7_true-unreach-call.cil.c'
p1101
(lp1102
I0
aI1
aS'true'
p1103
aF5.002322883
aS'correct'
p1104
aI0
aI2
aS'true'
p1105
aF5.344310297
aS'correct'
p1106
aI0
aI3
aS'true'
p1107
aF5.812221841
aS'correct'
p1108
aI0
aI4
aS'true'
p1109
aF6.904816809
aS'correct'
p1110
aI0
aI5
aS'true'
p1111
aF8.611037661
aS'correct'
p1112
aI0
aI6
aS'true'
p1113
aF12.92503302
aS'correct'
p1114
aI0
aI7
aS'true'
p1115
aF20.470512981
aS'correct'
p1116
aI0
aI8
aS'true'
p1117
aF29.088382163
aS'correct'
p1118
aI0
aI9
aS'true'
p1119
aF39.65530002
aS'correct'
p1120
aI0
aI10
aS'true'
p1121
aF53.66736773
aS'correct'
p1122
asS'../../c/ssh-simplified/s3_srvr_13_false-unreach-call.cil.c'
p1123
(lp1124
I0
aI1
aS'true'
p1125
aI500000000
aS'wrong'
p1126
aI0
aI2
aS'true'
p1127
aI500000000
aS'wrong'
p1128
aI0
aI3
aS'true'
p1129
aI500000000
aS'wrong'
p1130
aI0
aI4
aS'false(reach)'
p1131
aF9.063842018
aS'correct'
p1132
aI0
aI5
aS'false(reach)'
p1133
aF8.931051235
aS'correct'
p1134
aI0
aI6
aS'false(reach)'
p1135
aF8.991249762
aS'correct'
p1136
aI0
aI7
aS'false(reach)'
p1137
aF8.973609598
aS'correct'
p1138
aI0
aI8
aS'false(reach)'
p1139
aF9.035755842
aS'correct'
p1140
aI0
aI9
aS'false(reach)'
p1141
aF8.998460544
aS'correct'
p1142
aI0
aI10
aS'false(reach)'
p1143
aF8.931307956
aS'correct'
p1144
asS'../../c/ntdrivers/floppy2_true-unreach-call.i.cil.c'
p1145
(lp1146
I0
aI1
aS'true'
p1147
aF104.487316948
aS'correct'
p1148
aI0
aI2
aS'true'
p1149
aF107.42811539
aS'correct'
p1150
aI0
aI3
aS'true'
p1151
aF106.408927458
aS'correct'
p1152
aI0
aI4
aS'true'
p1153
aF108.118796221
aS'correct'
p1154
aI0
aI5
aS'true'
p1155
aF110.894323372
aS'correct'
p1156
aI0
aI6
aS'true'
p1157
aF111.69313545
aS'correct'
p1158
aI0
aI7
aS'true'
p1159
aF113.068029875
aS'correct'
p1160
aI0
aI8
aS'true'
p1161
aF115.785170622
aS'correct'
p1162
aI0
aI9
aS'true'
p1163
aF115.068453174
aS'correct'
p1164
aI0
aI10
aS'true'
p1165
aF113.880792962
aS'correct'
p1166
asS'../../c/ssh-simplified/s3_clnt_1_true-unreach-call.cil.c'
p1167
(lp1168
I0
aI1
aS'true'
p1169
aF4.547245454
aS'correct'
p1170
aI0
aI2
aS'true'
p1171
aF4.860238792
aS'correct'
p1172
aI0
aI3
aS'true'
p1173
aF5.138586385
aS'correct'
p1174
aI0
aI4
aS'true'
p1175
aF5.636836491
aS'correct'
p1176
aI0
aI5
aS'true'
p1177
aF6.343339797
aS'correct'
p1178
aI0
aI6
aS'true'
p1179
aF7.260952675
aS'correct'
p1180
aI0
aI7
aS'true'
p1181
aF8.930507903
aS'correct'
p1182
aI0
aI8
aS'true'
p1183
aF11.655829594
aS'correct'
p1184
aI0
aI9
aS'true'
p1185
aF15.180055584
aS'correct'
p1186
aI0
aI10
aS'true'
p1187
aF19.277729252
aS'correct'
p1188
asS'../../c/ssh-simplified/s3_srvr_14_false-unreach-call.cil.c'
p1189
(lp1190
I0
aI1
aS'true'
p1191
aI500000000
aS'wrong'
p1192
aI0
aI2
aS'false(reach)'
p1193
aF6.434042721
aS'correct'
p1194
aI0
aI3
aS'false(reach)'
p1195
aF6.501956134
aS'correct'
p1196
aI0
aI4
aS'false(reach)'
p1197
aF6.446415805
aS'correct'
p1198
aI0
aI5
aS'false(reach)'
p1199
aF6.435010011
aS'correct'
p1200
aI0
aI6
aS'false(reach)'
p1201
aF6.554634651
aS'correct'
p1202
aI0
aI7
aS'false(reach)'
p1203
aF6.409282938
aS'correct'
p1204
aI0
aI8
aS'false(reach)'
p1205
aF6.461994822
aS'correct'
p1206
aI0
aI9
aS'false(reach)'
p1207
aF6.459477912
aS'correct'
p1208
aI0
aI10
aS'false(reach)'
p1209
aF6.453868037
aS'correct'
p1210
asS'../../c/ssh/s3_srvr.blast.08_true-unreach-call.i.cil.c'
p1211
(lp1212
I0
aI1
aS'true'
p1213
aF6.946791031
aS'correct'
p1214
aI0
aI2
aS'true'
p1215
aF7.689002793
aS'correct'
p1216
aI0
aI3
aS'true'
p1217
aF9.577598937
aS'correct'
p1218
aI0
aI4
aS'true'
p1219
aF13.559252586
aS'correct'
p1220
aI0
aI5
aS'true'
p1221
aF21.860993428
aS'correct'
p1222
aI0
aI6
aS'true'
p1223
aF38.486337167
aS'correct'
p1224
aI0
aI7
aS'true'
p1225
aF72.535237242
aS'correct'
p1226
aI0
aI8
aS'true'
p1227
aF122.914540605
aS'correct'
p1228
aI0
aI9
aS'true'
p1229
aF222.095178172
aS'correct'
p1230
aI0
aI10
aS'true'
p1231
aF403.181563055
aS'correct'
p1232
asS'../../c/ssh/s3_srvr.blast.16_true-unreach-call.i.cil.c'
p1233
(lp1234
I0
aI1
aS'true'
p1235
aF7.358752792
aS'correct'
p1236
aI0
aI2
aS'true'
p1237
aF8.245480026
aS'correct'
p1238
aI0
aI3
aS'true'
p1239
aF10.133817752
aS'correct'
p1240
aI0
aI4
aS'true'
p1241
aF13.800080731
aS'correct'
p1242
aI0
aI5
aS'true'
p1243
aF21.82238661
aS'correct'
p1244
aI0
aI6
aS'true'
p1245
aF41.368878331
aS'correct'
p1246
aI0
aI7
aS'true'
p1247
aF73.79398555
aS'correct'
p1248
aI0
aI8
aS'true'
p1249
aF130.922168229
aS'correct'
p1250
aI0
aI9
aS'true'
p1251
aF248.213112331
aS'correct'
p1252
aI0
aI10
aS'true'
p1253
aF502.007358654
aS'correct'
p1254
asS'../../c/locks/test_locks_8_true-unreach-call_true-valid-memsafety_false-termination.c'
p1255
(lp1256
I0
aI1
aS'true'
p1257
aF3.303459024
aS'correct'
p1258
aI0
aI2
aS'true'
p1259
aF3.338535891
aS'correct'
p1260
aI0
aI3
aS'true'
p1261
aF3.367496462
aS'correct'
p1262
aI0
aI4
aS'true'
p1263
aF3.268918285
aS'correct'
p1264
aI0
aI5
aS'true'
p1265
aF3.289445415
aS'correct'
p1266
aI0
aI6
aS'true'
p1267
aF3.295096342
aS'correct'
p1268
aI0
aI7
aS'true'
p1269
aF3.289956799
aS'correct'
p1270
aI0
aI8
aS'true'
p1271
aF3.358338761
aS'correct'
p1272
aI0
aI9
aS'true'
p1273
aF3.329892193
aS'correct'
p1274
aI0
aI10
aS'true'
p1275
aF3.305858498
aS'correct'
p1276
asS'../../c/ssh/s3_srvr.blast.12_true-unreach-call.i.cil.c'
p1277
(lp1278
I0
aI1
aS'true'
p1279
aF7.158160255
aS'correct'
p1280
aI0
aI2
aS'true'
p1281
aF7.942758944
aS'correct'
p1282
aI0
aI3
aS'true'
p1283
aF9.604425258
aS'correct'
p1284
aI0
aI4
aS'true'
p1285
aF13.433231161
aS'correct'
p1286
aI0
aI5
aS'true'
p1287
aF21.220339748
aS'correct'
p1288
aI0
aI6
aS'true'
p1289
aF36.84168007
aS'correct'
p1290
aI0
aI7
aS'true'
p1291
aF65.582344249
aS'correct'
p1292
aI0
aI8
aS'true'
p1293
aF114.808267548
aS'correct'
p1294
aI0
aI9
aS'true'
p1295
aF226.642429914
aS'correct'
p1296
aI0
aI10
aS'true'
p1297
aF471.662532709
aS'correct'
p1298
asS'../../c/ntdrivers/cdaudio_true-unreach-call.i.cil.c'
p1299
(lp1300
I0
aI1
aS'true'
p1301
aF81.803059245
aS'correct'
p1302
aI0
aI2
aS'true'
p1303
aF84.715151949
aS'correct'
p1304
aI0
aI3
aS'true'
p1305
aF84.744574928
aS'correct'
p1306
aI0
aI4
aS'true'
p1307
aF85.742071743
aS'correct'
p1308
aI0
aI5
aS'true'
p1309
aF87.657973415
aS'correct'
p1310
aI0
aI6
aS'true'
p1311
aF87.912863388
aS'correct'
p1312
aI0
aI7
aS'true'
p1313
aF87.352158133
aS'correct'
p1314
aI0
aI8
aS'true'
p1315
aF86.892563407
aS'correct'
p1316
aI0
aI9
aS'true'
p1317
aF88.795618328
aS'correct'
p1318
aI0
aI10
aS'true'
p1319
aF88.729677709
aS'correct'
p1320
asS'../../c/ssh/s3_clnt.blast.04_true-unreach-call.i.cil.c'
p1321
(lp1322
I0
aI1
aS'true'
p1323
aF6.0479939
aS'correct'
p1324
aI0
aI2
aS'true'
p1325
aF6.581034578
aS'correct'
p1326
aI0
aI3
aS'true'
p1327
aF7.964325381
aS'correct'
p1328
aI0
aI4
aS'true'
p1329
aF10.99406173
aS'correct'
p1330
aI0
aI5
aS'true'
p1331
aF16.668134685
aS'correct'
p1332
aI0
aI6
aS'true'
p1333
aF107.728873749
aS'correct'
p1334
aI0
aI7
aS'true'
p1335
aF184.681969841
aS'correct'
p1336
aI0
aI8
aS'TIMEOUT'
p1337
aI500000000
aS'error'
p1338
aI0
aI9
aS'TIMEOUT'
p1339
aI500000000
aS'error'
p1340
aI0
aI10
aS'TIMEOUT'
p1341
aI500000000
aS'error'
p1342
asS'../../c/ntdrivers-simplified/kbfiltr_simpl2_false-unreach-call_true-valid-memsafety_true-termination.cil.c'
p1343
(lp1344
I0
aI1
aS'false(reach)'
p1345
aF25.549902686
aS'correct'
p1346
aI0
aI2
aS'false(reach)'
p1347
aF25.990443677
aS'correct'
p1348
aI0
aI3
aS'false(reach)'
p1349
aF25.459666202
aS'correct'
p1350
aI0
aI4
aS'false(reach)'
p1351
aF25.480441191
aS'correct'
p1352
aI0
aI5
aS'false(reach)'
p1353
aF25.55821422
aS'correct'
p1354
aI0
aI6
aS'false(reach)'
p1355
aF25.41877797
aS'correct'
p1356
aI0
aI7
aS'false(reach)'
p1357
aF25.543026773
aS'correct'
p1358
aI0
aI8
aS'false(reach)'
p1359
aF25.248676142
aS'correct'
p1360
aI0
aI9
aS'false(reach)'
p1361
aF25.831469741
aS'correct'
p1362
aI0
aI10
aS'false(reach)'
p1363
aF25.566956003
aS'correct'
p1364
asS'../../c/ssh-simplified/s3_srvr_3_true-unreach-call.cil.c'
p1365
(lp1366
I0
aI1
aS'true'
p1367
aF4.794559009
aS'correct'
p1368
aI0
aI2
aS'true'
p1369
aF5.13331973
aS'correct'
p1370
aI0
aI3
aS'true'
p1371
aF5.658310281
aS'correct'
p1372
aI0
aI4
aS'true'
p1373
aF6.276700206
aS'correct'
p1374
aI0
aI5
aS'true'
p1375
aF7.477201444
aS'correct'
p1376
aI0
aI6
aS'true'
p1377
aF9.406171677
aS'correct'
p1378
aI0
aI7
aS'true'
p1379
aF12.107703343
aS'correct'
p1380
aI0
aI8
aS'true'
p1381
aF15.406783228
aS'correct'
p1382
aI0
aI9
aS'true'
p1383
aF18.850205192
aS'correct'
p1384
aI0
aI10
aS'true'
p1385
aF23.355905197
aS'correct'
p1386
asS'../../c/ssh/s3_srvr.blast.02_true-unreach-call.i.cil.c'
p1387
(lp1388
I0
aI1
aS'true'
p1389
aF6.741505064
aS'correct'
p1390
aI0
aI2
aS'true'
p1391
aF7.573769945
aS'correct'
p1392
aI0
aI3
aS'true'
p1393
aF9.336882659
aS'correct'
p1394
aI0
aI4
aS'true'
p1395
aF12.979718035
aS'correct'
p1396
aI0
aI5
aS'true'
p1397
aF40.975410848
aS'correct'
p1398
aI0
aI6
aS'true'
p1399
aF56.013415833
aS'correct'
p1400
aI0
aI7
aS'true'
p1401
aF179.484513098
aS'correct'
p1402
aI0
aI8
aS'TIMEOUT'
p1403
aI500000000
aS'error'
p1404
aI0
aI9
aS'TIMEOUT'
p1405
aI500000000
aS'error'
p1406
aI0
aI10
aS'TIMEOUT'
p1407
aI500000000
aS'error'
p1408
asS'../../c/locks/test_locks_13_true-unreach-call_true-valid-memsafety_false-termination.c'
p1409
(lp1410
I0
aI1
aS'true'
p1411
aF5.344342219
aS'correct'
p1412
aI0
aI2
aS'true'
p1413
aF5.291949234
aS'correct'
p1414
aI0
aI3
aS'true'
p1415
aF5.309880134
aS'correct'
p1416
aI0
aI4
aS'true'
p1417
aF5.345181685
aS'correct'
p1418
aI0
aI5
aS'true'
p1419
aF5.421212558
aS'correct'
p1420
aI0
aI6
aS'true'
p1421
aF5.367135408
aS'correct'
p1422
aI0
aI7
aS'true'
p1423
aF5.267076789
aS'correct'
p1424
aI0
aI8
aS'true'
p1425
aF5.390392231
aS'correct'
p1426
aI0
aI9
aS'true'
p1427
aF5.329419349
aS'correct'
p1428
aI0
aI10
aS'true'
p1429
aF5.322519745
aS'correct'
p1430
asS'../../c/ssh/s3_srvr.blast.09_false-unreach-call.i.cil.c'
p1431
(lp1432
I0
aI1
aS'true'
p1433
aI500000000
aS'wrong'
p1434
aI0
aI2
aS'true'
p1435
aI500000000
aS'wrong'
p1436
aI0
aI3
aS'true'
p1437
aI500000000
aS'wrong'
p1438
aI0
aI4
aS'true'
p1439
aI500000000
aS'wrong'
p1440
aI0
aI5
aS'true'
p1441
aI500000000
aS'wrong'
p1442
aI0
aI6
aS'false(reach)'
p1443
aF67.551707108
aS'correct'
p1444
aI0
aI7
aS'false(reach)'
p1445
aF69.578430283
aS'correct'
p1446
aI0
aI8
aS'false(reach)'
p1447
aF69.208117252
aS'correct'
p1448
aI0
aI9
aS'false(reach)'
p1449
aF68.104740107
aS'correct'
p1450
aI0
aI10
aS'false(reach)'
p1451
aF70.034885189
aS'correct'
p1452
asS'../../c/ssh/s3_srvr.blast.14_false-unreach-call.i.cil.c'
p1453
(lp1454
I0
aI1
aS'true'
p1455
aI500000000
aS'wrong'
p1456
aI0
aI2
aS'true'
p1457
aI500000000
aS'wrong'
p1458
aI0
aI3
aS'true'
p1459
aI500000000
aS'wrong'
p1460
aI0
aI4
aS'true'
p1461
aI500000000
aS'wrong'
p1462
aI0
aI5
aS'true'
p1463
aI500000000
aS'wrong'
p1464
aI0
aI6
aS'false(reach)'
p1465
aF57.397182907
aS'correct'
p1466
aI0
aI7
aS'false(reach)'
p1467
aF57.816492537
aS'correct'
p1468
aI0
aI8
aS'false(reach)'
p1469
aF57.937894938
aS'correct'
p1470
aI0
aI9
aS'false(reach)'
p1471
aF58.13678828
aS'correct'
p1472
aI0
aI10
aS'false(reach)'
p1473
aF60.575536431
aS'correct'
p1474
asS'../../c/ssh/s3_srvr.blast.15_false-unreach-call.i.cil.c'
p1475
(lp1476
I0
aI1
aS'true'
p1477
aI500000000
aS'wrong'
p1478
aI0
aI2
aS'true'
p1479
aI500000000
aS'wrong'
p1480
aI0
aI3
aS'true'
p1481
aI500000000
aS'wrong'
p1482
aI0
aI4
aS'true'
p1483
aI500000000
aS'wrong'
p1484
aI0
aI5
aS'true'
p1485
aI500000000
aS'wrong'
p1486
aI0
aI6
aS'true'
p1487
aI500000000
aS'wrong'
p1488
aI0
aI7
aS'TIMEOUT'
p1489
aI500000000
aS'error'
p1490
aI0
aI8
aS'TIMEOUT'
p1491
aI500000000
aS'error'
p1492
aI0
aI9
aS'TIMEOUT'
p1493
aI500000000
aS'error'
p1494
aI0
aI10
aS'TIMEOUT'
p1495
aI500000000
aS'error'
p1496
asS'../../c/ssh/s3_srvr.blast.07_false-unreach-call.i.cil.c'
p1497
(lp1498
I0
aI1
aS'true'
p1499
aI500000000
aS'wrong'
p1500
aI0
aI2
aS'true'
p1501
aI500000000
aS'wrong'
p1502
aI0
aI3
aS'true'
p1503
aI500000000
aS'wrong'
p1504
aI0
aI4
aS'true'
p1505
aI500000000
aS'wrong'
p1506
aI0
aI5
aS'true'
p1507
aI500000000
aS'wrong'
p1508
aI0
aI6
aS'false(reach)'
p1509
aF68.36032668
aS'correct'
p1510
aI0
aI7
aS'false(reach)'
p1511
aF68.257846464
aS'correct'
p1512
aI0
aI8
aS'false(reach)'
p1513
aF68.344104485
aS'correct'
p1514
aI0
aI9
aS'false(reach)'
p1515
aF67.405883598
aS'correct'
p1516
aI0
aI10
aS'false(reach)'
p1517
aF68.720648123
aS'correct'
p1518
asS'../../c/locks/test_locks_15_true-unreach-call_true-valid-memsafety_false-termination.c'
p1519
(lp1520
I0
aI1
aS'true'
p1521
aF9.436642775
aS'correct'
p1522
aI0
aI2
aS'true'
p1523
aF9.324036342
aS'correct'
p1524
aI0
aI3
aS'true'
p1525
aF9.212186209
aS'correct'
p1526
aI0
aI4
aS'true'
p1527
aF9.204587965
aS'correct'
p1528
aI0
aI5
aS'true'
p1529
aF9.18675382
aS'correct'
p1530
aI0
aI6
aS'true'
p1531
aF9.181097987
aS'correct'
p1532
aI0
aI7
aS'true'
p1533
aF9.20892693
aS'correct'
p1534
aI0
aI8
aS'true'
p1535
aF9.252044416
aS'correct'
p1536
aI0
aI9
aS'true'
p1537
aF9.223879396
aS'correct'
p1538
aI0
aI10
aS'true'
p1539
aF9.193742888
aS'correct'
p1540
asS'../../c/ssh-simplified/s3_clnt_2_false-unreach-call_true-termination.cil.c'
p1541
(lp1542
I0
aI1
aS'true'
p1543
aI500000000
aS'wrong'
p1544
aI0
aI2
aS'true'
p1545
aI500000000
aS'wrong'
p1546
aI0
aI3
aS'true'
p1547
aI500000000
aS'wrong'
p1548
aI0
aI4
aS'true'
p1549
aI500000000
aS'wrong'
p1550
aI0
aI5
aS'true'
p1551
aI500000000
aS'wrong'
p1552
aI0
aI6
aS'false(reach)'
p1553
aF8.312401728
aS'correct'
p1554
aI0
aI7
aS'false(reach)'
p1555
aF8.271397063
aS'correct'
p1556
aI0
aI8
aS'false(reach)'
p1557
aF8.320753222
aS'correct'
p1558
aI0
aI9
aS'false(reach)'
p1559
aF8.26161956
aS'correct'
p1560
aI0
aI10
aS'false(reach)'
p1561
aF8.278354609
aS'correct'
p1562
asS'../../c/ssh/s3_srvr.blast.11_true-unreach-call.i.cil.c'
p1563
(lp1564
I0
aI1
aS'true'
p1565
aF6.901231378
aS'correct'
p1566
aI0
aI2
aS'true'
p1567
aF8.039086218
aS'correct'
p1568
aI0
aI3
aS'true'
p1569
aF10.981963302
aS'correct'
p1570
aI0
aI4
aS'true'
p1571
aF17.75546701
aS'correct'
p1572
aI0
aI5
aS'true'
p1573
aF33.095221962
aS'correct'
p1574
aI0
aI6
aS'true'
p1575
aF113.484458546
aS'correct'
p1576
aI0
aI7
aS'true'
p1577
aF321.382272572
aS'correct'
p1578
aI0
aI8
aS'TIMEOUT'
p1579
aI500000000
aS'error'
p1580
aI0
aI9
aS'TIMEOUT'
p1581
aI500000000
aS'error'
p1582
aI0
aI10
aS'TIMEOUT'
p1583
aI500000000
aS'error'
p1584
asS'../../c/ntdrivers/parport_false-unreach-call.i.cil.c'
p1585
(lp1586
I0
aI1
aS'false(reach)'
p1587
aF36.733328934
aS'correct'
p1588
aI0
aI2
aS'false(reach)'
p1589
aF36.521029647
aS'correct'
p1590
aI0
aI3
aS'false(reach)'
p1591
aF37.361375705
aS'correct'
p1592
aI0
aI4
aS'false(reach)'
p1593
aF36.625644073
aS'correct'
p1594
aI0
aI5
aS'false(reach)'
p1595
aF36.938030309
aS'correct'
p1596
aI0
aI6
aS'false(reach)'
p1597
aF35.987906712
aS'correct'
p1598
aI0
aI7
aS'false(reach)'
p1599
aF36.560668404
aS'correct'
p1600
aI0
aI8
aS'false(reach)'
p1601
aF36.342357065
aS'correct'
p1602
aI0
aI9
aS'false(reach)'
p1603
aF36.455649502
aS'correct'
p1604
aI0
aI10
aS'false(reach)'
p1605
aF36.746500352
aS'correct'
p1606
asS'../../c/ssh-simplified/s3_srvr_11_false-unreach-call.cil.c'
p1607
(lp1608
I0
aI1
aS'true'
p1609
aI500000000
aS'wrong'
p1610
aI0
aI2
aS'true'
p1611
aI500000000
aS'wrong'
p1612
aI0
aI3
aS'true'
p1613
aI500000000
aS'wrong'
p1614
aI0
aI4
aS'true'
p1615
aI500000000
aS'wrong'
p1616
aI0
aI5
aS'true'
p1617
aI500000000
aS'wrong'
p1618
aI0
aI6
aS'true'
p1619
aI500000000
aS'wrong'
p1620
aI0
aI7
aS'false(reach)'
p1621
aF19.881067227
aS'correct'
p1622
aI0
aI8
aS'false(reach)'
p1623
aF19.789594875
aS'correct'
p1624
aI0
aI9
aS'false(reach)'
p1625
aF19.815316145
aS'correct'
p1626
aI0
aI10
aS'false(reach)'
p1627
aF19.739524158
aS'correct'
p1628
asS'../../c/locks/test_locks_6_true-unreach-call_true-valid-memsafety_false-termination.c'
p1629
(lp1630
I0
aI1
aS'true'
p1631
aF3.375797894
aS'correct'
p1632
aI0
aI2
aS'true'
p1633
aF3.228646103
aS'correct'
p1634
aI0
aI3
aS'true'
p1635
aF3.292110198
aS'correct'
p1636
aI0
aI4
aS'true'
p1637
aF3.198163055
aS'correct'
p1638
aI0
aI5
aS'true'
p1639
aF3.225852013
aS'correct'
p1640
aI0
aI6
aS'true'
p1641
aF3.228047524
aS'correct'
p1642
aI0
aI7
aS'true'
p1643
aF3.162227635
aS'correct'
p1644
aI0
aI8
aS'true'
p1645
aF3.3079013
aS'correct'
p1646
aI0
aI9
aS'true'
p1647
aF3.23725721
aS'correct'
p1648
aI0
aI10
aS'true'
p1649
aF3.284490214
aS'correct'
p1650
asS'../../c/ssh/s3_srvr.blast.10_true-unreach-call.i.cil.c'
p1651
(lp1652
I0
aI1
aS'true'
p1653
aF7.090139669
aS'correct'
p1654
aI0
aI2
aS'true'
p1655
aF7.672992727
aS'correct'
p1656
aI0
aI3
aS'true'
p1657
aF9.605098789
aS'correct'
p1658
aI0
aI4
aS'true'
p1659
aF13.182010452
aS'correct'
p1660
aI0
aI5
aS'true'
p1661
aF20.923202435
aS'correct'
p1662
aI0
aI6
aS'true'
p1663
aF37.217120463
aS'correct'
p1664
aI0
aI7
aS'true'
p1665
aF66.912080512
aS'correct'
p1666
aI0
aI8
aS'TIMEOUT'
p1667
aI500000000
aS'error'
p1668
aI0
aI9
aS'TIMEOUT'
p1669
aI500000000
aS'error'
p1670
aI0
aI10
aS'TIMEOUT'
p1671
aI500000000
aS'error'
p1672
asS'../../c/ssh/s3_srvr.blast.15_true-unreach-call.i.cil.c'
p1673
(lp1674
I0
aI1
aS'true'
p1675
aF7.095555157
aS'correct'
p1676
aI0
aI2
aS'true'
p1677
aF7.710874351
aS'correct'
p1678
aI0
aI3
aS'true'
p1679
aF9.953790606
aS'correct'
p1680
aI0
aI4
aS'true'
p1681
aF13.821845415
aS'correct'
p1682
aI0
aI5
aS'true'
p1683
aF23.181769126
aS'correct'
p1684
aI0
aI6
aS'true'
p1685
aF40.667249743
aS'correct'
p1686
aI0
aI7
aS'true'
p1687
aF77.50583027
aS'correct'
p1688
aI0
aI8
aS'true'
p1689
aF136.158739537
aS'correct'
p1690
aI0
aI9
aS'true'
p1691
aF233.465111623
aS'correct'
p1692
aI0
aI10
aS'true'
p1693
aF359.198434312
aS'correct'
p1694
asS'../../c/ssh/s3_clnt.blast.02_false-unreach-call.i.cil.c'
p1695
(lp1696
I0
aI1
aS'true'
p1697
aI500000000
aS'wrong'
p1698
aI0
aI2
aS'true'
p1699
aI500000000
aS'wrong'
p1700
aI0
aI3
aS'true'
p1701
aI500000000
aS'wrong'
p1702
aI0
aI4
aS'true'
p1703
aI500000000
aS'wrong'
p1704
aI0
aI5
aS'true'
p1705
aI500000000
aS'wrong'
p1706
aI0
aI6
aS'false(reach)'
p1707
aF80.500519928
aS'correct'
p1708
aI0
aI7
aS'false(reach)'
p1709
aF84.099187968
aS'correct'
p1710
aI0
aI8
aS'false(reach)'
p1711
aF83.621811956
aS'correct'
p1712
aI0
aI9
aS'false(reach)'
p1713
aF81.371313698
aS'correct'
p1714
aI0
aI10
aS'false(reach)'
p1715
aF82.1547993
aS'correct'
p1716
asS'../../c/ssh-simplified/s3_srvr_2_true-unreach-call.cil.c'
p1717
(lp1718
I0
aI1
aS'true'
p1719
aF4.908342697
aS'correct'
p1720
aI0
aI2
aS'true'
p1721
aF5.247319646
aS'correct'
p1722
aI0
aI3
aS'true'
p1723
aF5.604367255
aS'correct'
p1724
aI0
aI4
aS'true'
p1725
aF6.274954789
aS'correct'
p1726
aI0
aI5
aS'true'
p1727
aF7.502164274
aS'correct'
p1728
aI0
aI6
aS'true'
p1729
aF9.41064397
aS'correct'
p1730
aI0
aI7
aS'true'
p1731
aF11.871578485
aS'correct'
p1732
aI0
aI8
aS'true'
p1733
aF14.99338433
aS'correct'
p1734
aI0
aI9
aS'true'
p1735
aF18.34791777
aS'correct'
p1736
aI0
aI10
aS'true'
p1737
aF22.138265949
aS'correct'
p1738
asS'../../c/ssh/s3_srvr.blast.04_false-unreach-call.i.cil.c'
p1739
(lp1740
I0
aI1
aS'true'
p1741
aI500000000
aS'wrong'
p1742
aI0
aI2
aS'true'
p1743
aI500000000
aS'wrong'
p1744
aI0
aI3
aS'true'
p1745
aI500000000
aS'wrong'
p1746
aI0
aI4
aS'false(reach)'
p1747
aF12.945372596
aS'correct'
p1748
aI0
aI5
aS'false(reach)'
p1749
aF13.053887784
aS'correct'
p1750
aI0
aI6
aS'false(reach)'
p1751
aF12.91838202
aS'correct'
p1752
aI0
aI7
aS'false(reach)'
p1753
aF12.880152148
aS'correct'
p1754
aI0
aI8
aS'false(reach)'
p1755
aF12.662278201
aS'correct'
p1756
aI0
aI9
aS'false(reach)'
p1757
aF12.991381066
aS'correct'
p1758
aI0
aI10
aS'false(reach)'
p1759
aF12.724596583
aS'correct'
p1760
asS'../../c/ntdrivers-simplified/floppy_simpl4_false-unreach-call_true-valid-memsafety_true-termination.cil.c'
p1761
(lp1762
I0
aI1
aS'false(reach)'
p1763
aF58.419209922
aS'correct'
p1764
aI0
aI2
aS'false(reach)'
p1765
aF58.374614659
aS'correct'
p1766
aI0
aI3
aS'false(reach)'
p1767
aF58.162424081
aS'correct'
p1768
aI0
aI4
aS'false(reach)'
p1769
aF58.066020814
aS'correct'
p1770
aI0
aI5
aS'false(reach)'
p1771
aF58.429276356
aS'correct'
p1772
aI0
aI6
aS'false(reach)'
p1773
aF58.192615341
aS'correct'
p1774
aI0
aI7
aS'false(reach)'
p1775
aF58.097449946
aS'correct'
p1776
aI0
aI8
aS'false(reach)'
p1777
aF59.084524775
aS'correct'
p1778
aI0
aI9
aS'false(reach)'
p1779
aF57.651268559
aS'correct'
p1780
aI0
aI10
aS'false(reach)'
p1781
aF58.601374106
aS'correct'
p1782
asS'../../c/ssh-simplified/s3_clnt_1_false-unreach-call.cil.c'
p1783
(lp1784
I0
aI1
aS'true'
p1785
aI500000000
aS'wrong'
p1786
aI0
aI2
aS'true'
p1787
aI500000000
aS'wrong'
p1788
aI0
aI3
aS'true'
p1789
aI500000000
aS'wrong'
p1790
aI0
aI4
aS'true'
p1791
aI500000000
aS'wrong'
p1792
aI0
aI5
aS'true'
p1793
aI500000000
aS'wrong'
p1794
aI0
aI6
aS'false(reach)'
p1795
aF8.192812542
aS'correct'
p1796
aI0
aI7
aS'false(reach)'
p1797
aF8.419393309
aS'correct'
p1798
aI0
aI8
aS'false(reach)'
p1799
aF8.195175215
aS'correct'
p1800
aI0
aI9
aS'false(reach)'
p1801
aF8.199680909
aS'correct'
p1802
aI0
aI10
aS'false(reach)'
p1803
aF8.379097344
aS'correct'
p1804
asS'../../c/ssh-simplified/s3_srvr_10_false-unreach-call.cil.c'
p1805
(lp1806
I0
aI1
aS'false(reach)'
p1807
aF5.78021991
aS'correct'
p1808
aI0
aI2
aS'false(reach)'
p1809
aF5.815868501
aS'correct'
p1810
aI0
aI3
aS'false(reach)'
p1811
aF5.877880046
aS'correct'
p1812
aI0
aI4
aS'false(reach)'
p1813
aF5.751932615
aS'correct'
p1814
aI0
aI5
aS'false(reach)'
p1815
aF5.977704657
aS'correct'
p1816
aI0
aI6
aS'false(reach)'
p1817
aF5.910041191
aS'correct'
p1818
aI0
aI7
aS'false(reach)'
p1819
aF5.829033776
aS'correct'
p1820
aI0
aI8
aS'false(reach)'
p1821
aF5.815137746
aS'correct'
p1822
aI0
aI9
aS'false(reach)'
p1823
aF5.819459893
aS'correct'
p1824
aI0
aI10
aS'false(reach)'
p1825
aF5.878027564
aS'correct'
p1826
asS'../../c/ssh/s3_srvr.blast.01_false-unreach-call.i.cil.c'
p1827
(lp1828
I0
aI1
aS'true'
p1829
aI500000000
aS'wrong'
p1830
aI0
aI2
aS'true'
p1831
aI500000000
aS'wrong'
p1832
aI0
aI3
aS'true'
p1833
aI500000000
aS'wrong'
p1834
aI0
aI4
aS'false(reach)'
p1835
aF15.791051947
aS'correct'
p1836
aI0
aI5
aS'false(reach)'
p1837
aF15.781058834
aS'correct'
p1838
aI0
aI6
aS'false(reach)'
p1839
aF16.014887411
aS'correct'
p1840
aI0
aI7
aS'false(reach)'
p1841
aF15.975013106
aS'correct'
p1842
aI0
aI8
aS'false(reach)'
p1843
aF16.01309482
aS'correct'
p1844
aI0
aI9
aS'false(reach)'
p1845
aF15.727125573
aS'correct'
p1846
aI0
aI10
aS'false(reach)'
p1847
aF15.851004443
aS'correct'
p1848
asS'../../c/ssh/s3_srvr.blast.16_false-unreach-call.i.cil.c'
p1849
(lp1850
I0
aI1
aS'true'
p1851
aI500000000
aS'wrong'
p1852
aI0
aI2
aS'true'
p1853
aI500000000
aS'wrong'
p1854
aI0
aI3
aS'true'
p1855
aI500000000
aS'wrong'
p1856
aI0
aI4
aS'true'
p1857
aI500000000
aS'wrong'
p1858
aI0
aI5
aS'true'
p1859
aI500000000
aS'wrong'
p1860
aI0
aI6
aS'false(reach)'
p1861
aF61.742961103
aS'correct'
p1862
aI0
aI7
aS'false(reach)'
p1863
aF60.854942083
aS'correct'
p1864
aI0
aI8
aS'false(reach)'
p1865
aF61.058421509
aS'correct'
p1866
aI0
aI9
aS'false(reach)'
p1867
aF63.415203466
aS'correct'
p1868
aI0
aI10
aS'false(reach)'
p1869
aF60.048958055
aS'correct'
p1870
asS'../../c/ntdrivers/kbfiltr_false-unreach-call.i.cil.c'
p1871
(lp1872
I0
aI1
aS'false(reach)'
p1873
aF40.195081571
aS'correct'
p1874
aI0
aI2
aS'false(reach)'
p1875
aF40.120459104
aS'correct'
p1876
aI0
aI3
aS'false(reach)'
p1877
aF39.832704688
aS'correct'
p1878
aI0
aI4
aS'false(reach)'
p1879
aF40.332360567
aS'correct'
p1880
aI0
aI5
aS'false(reach)'
p1881
aF39.440906781
aS'correct'
p1882
aI0
aI6
aS'false(reach)'
p1883
aF40.791685393
aS'correct'
p1884
aI0
aI7
aS'false(reach)'
p1885
aF39.426205634
aS'correct'
p1886
aI0
aI8
aS'false(reach)'
p1887
aF39.845903111
aS'correct'
p1888
aI0
aI9
aS'false(reach)'
p1889
aF41.016544611
aS'correct'
p1890
aI0
aI10
aS'false(reach)'
p1891
aF39.550732425
aS'correct'
p1892
asS'../../c/ntdrivers-simplified/floppy_simpl3_true-unreach-call_true-valid-memsafety_true-termination.cil.c'
p1893
(lp1894
I0
aI1
aS'true'
p1895
aF50.833292316
aS'correct'
p1896
aI0
aI2
aS'true'
p1897
aF51.603814379
aS'correct'
p1898
aI0
aI3
aS'true'
p1899
aF52.026742536
aS'correct'
p1900
aI0
aI4
aS'true'
p1901
aF52.554965444
aS'correct'
p1902
aI0
aI5
aS'true'
p1903
aF53.001976265
aS'correct'
p1904
aI0
aI6
aS'true'
p1905
aF53.401306963
aS'correct'
p1906
aI0
aI7
aS'true'
p1907
aF53.87775424
aS'correct'
p1908
aI0
aI8
aS'true'
p1909
aF54.470932997
aS'correct'
p1910
aI0
aI9
aS'true'
p1911
aF54.373606089
aS'correct'
p1912
aI0
aI10
aS'true'
p1913
aF56.133063254
aS'correct'
p1914
asS'../../c/ssh/s3_clnt.blast.04_false-unreach-call.i.cil.c'
p1915
(lp1916
I0
aI1
aS'true'
p1917
aI500000000
aS'wrong'
p1918
aI0
aI2
aS'true'
p1919
aI500000000
aS'wrong'
p1920
aI0
aI3
aS'true'
p1921
aI500000000
aS'wrong'
p1922
aI0
aI4
aS'true'
p1923
aI500000000
aS'wrong'
p1924
aI0
aI5
aS'true'
p1925
aI500000000
aS'wrong'
p1926
aI0
aI6
aS'false(reach)'
p1927
aF67.474707086
aS'correct'
p1928
aI0
aI7
aS'false(reach)'
p1929
aF68.283635059
aS'correct'
p1930
aI0
aI8
aS'false(reach)'
p1931
aF67.414742729
aS'correct'
p1932
aI0
aI9
aS'false(reach)'
p1933
aF68.176745742
aS'correct'
p1934
aI0
aI10
aS'false(reach)'
p1935
aF68.473783326
aS'correct'
p1936
asS'../../c/ssh-simplified/s3_clnt_2_true-unreach-call_true-termination.cil.c'
p1937
(lp1938
I0
aI1
aS'true'
p1939
aF4.669764059
aS'correct'
p1940
aI0
aI2
aS'true'
p1941
aF4.711407079
aS'correct'
p1942
aI0
aI3
aS'true'
p1943
aF5.165284592
aS'correct'
p1944
aI0
aI4
aS'true'
p1945
aF5.632071869
aS'correct'
p1946
aI0
aI5
aS'true'
p1947
aF6.303953858
aS'correct'
p1948
aI0
aI6
aS'true'
p1949
aF7.279397972
aS'correct'
p1950
aI0
aI7
aS'true'
p1951
aF8.92272985
aS'correct'
p1952
aI0
aI8
aS'true'
p1953
aF11.280600747
aS'correct'
p1954
aI0
aI9
aS'true'
p1955
aF14.193580275
aS'correct'
p1956
aI0
aI10
aS'true'
p1957
aF17.41928548
aS'correct'
p1958
asS'../../c/ssh/s3_clnt.blast.03_false-unreach-call.i.cil.c'
p1959
(lp1960
I0
aI1
aS'true'
p1961
aI500000000
aS'wrong'
p1962
aI0
aI2
aS'true'
p1963
aI500000000
aS'wrong'
p1964
aI0
aI3
aS'true'
p1965
aI500000000
aS'wrong'
p1966
aI0
aI4
aS'true'
p1967
aI500000000
aS'wrong'
p1968
aI0
aI5
aS'true'
p1969
aI500000000
aS'wrong'
p1970
aI0
aI6
aS'false(reach)'
p1971
aF78.679572087
aS'correct'
p1972
aI0
aI7
aS'false(reach)'
p1973
aF76.377097935
aS'correct'
p1974
aI0
aI8
aS'false(reach)'
p1975
aF76.526285019
aS'correct'
p1976
aI0
aI9
aS'false(reach)'
p1977
aF78.635119728
aS'correct'
p1978
aI0
aI10
aS'false(reach)'
p1979
aF79.07077723
aS'correct'
p1980
asS'../../c/ssh/s3_srvr.blast.13_false-unreach-call.i.cil.c'
p1981
(lp1982
I0
aI1
aS'true'
p1983
aI500000000
aS'wrong'
p1984
aI0
aI2
aS'true'
p1985
aI500000000
aS'wrong'
p1986
aI0
aI3
aS'true'
p1987
aI500000000
aS'wrong'
p1988
aI0
aI4
aS'true'
p1989
aI500000000
aS'wrong'
p1990
aI0
aI5
aS'true'
p1991
aI500000000
aS'wrong'
p1992
aI0
aI6
aS'false(reach)'
p1993
aF69.816560183
aS'correct'
p1994
aI0
aI7
aS'false(reach)'
p1995
aF69.480461772
aS'correct'
p1996
aI0
aI8
aS'false(reach)'
p1997
aF68.91242698
aS'correct'
p1998
aI0
aI9
aS'false(reach)'
p1999
aF68.479779944
aS'correct'
p2000
aI0
aI10
aS'false(reach)'
p2001
aF70.160446864
aS'correct'
p2002
asS'../../c/locks/test_locks_15_false-unreach-call_true-valid-memsafety_false-termination.c'
p2003
(lp2004
I0
aI1
aS'false(reach)'
p2005
aF4.45008852
aS'correct'
p2006
aI0
aI2
aS'false(reach)'
p2007
aF4.385773803
aS'correct'
p2008
aI0
aI3
aS'false(reach)'
p2009
aF4.4451324
aS'correct'
p2010
aI0
aI4
aS'false(reach)'
p2011
aF4.406806637
aS'correct'
p2012
aI0
aI5
aS'false(reach)'
p2013
aF4.427432009
aS'correct'
p2014
aI0
aI6
aS'false(reach)'
p2015
aF4.528413056
aS'correct'
p2016
aI0
aI7
aS'false(reach)'
p2017
aF4.476563439
aS'correct'
p2018
aI0
aI8
aS'false(reach)'
p2019
aF4.44454035
aS'correct'
p2020
aI0
aI9
aS'false(reach)'
p2021
aF4.530247701
aS'correct'
p2022
aI0
aI10
aS'false(reach)'
p2023
aF4.497502093
aS'correct'
p2024
asS'../../c/ssh/s3_srvr.blast.12_false-unreach-call.i.cil.c'
p2025
(lp2026
I0
aI1
aS'true'
p2027
aI500000000
aS'wrong'
p2028
aI0
aI2
aS'true'
p2029
aI500000000
aS'wrong'
p2030
aI0
aI3
aS'true'
p2031
aI500000000
aS'wrong'
p2032
aI0
aI4
aS'true'
p2033
aI500000000
aS'wrong'
p2034
aI0
aI5
aS'true'
p2035
aI500000000
aS'wrong'
p2036
aI0
aI6
aS'false(reach)'
p2037
aF58.314494783
aS'correct'
p2038
aI0
aI7
aS'false(reach)'
p2039
aF59.304128742
aS'correct'
p2040
aI0
aI8
aS'false(reach)'
p2041
aF59.058032415
aS'correct'
p2042
aI0
aI9
aS'false(reach)'
p2043
aF61.790010946
aS'correct'
p2044
aI0
aI10
aS'false(reach)'
p2045
aF58.864958947
aS'correct'
p2046
asS'../../c/ssh/s3_srvr.blast.01_true-unreach-call.i.cil.c'
p2047
(lp2048
I0
aI1
aS'true'
p2049
aF7.147478367
aS'correct'
p2050
aI0
aI2
aS'true'
p2051
aF7.493676538
aS'correct'
p2052
aI0
aI3
aS'true'
p2053
aF9.42041782
aS'correct'
p2054
aI0
aI4
aS'true'
p2055
aF12.938585067
aS'correct'
p2056
aI0
aI5
aS'true'
p2057
aF21.041739019
aS'correct'
p2058
aI0
aI6
aS'true'
p2059
aF85.428364383
aS'correct'
p2060
aI0
aI7
aS'true'
p2061
aF193.253894262
aS'correct'
p2062
aI0
aI8
aS'true'
p2063
aF571.239818354
aS'correct'
p2064
aI0
aI9
aS'TIMEOUT'
p2065
aI500000000
aS'error'
p2066
aI0
aI10
aS'TIMEOUT'
p2067
aI500000000
aS'error'
p2068
as.