(dp0
S'locks/test_locks_13_true-unreach-call_true-valid-memsafety_false-termination.c'
p1
(lp2
I0
aI1
aS'true'
p3
aF5.344342219
aS'correct'
p4
aI0
aI2
aS'true'
p5
aF5.291949234
aS'correct'
p6
aI0
aI3
aS'true'
p7
aF5.309880134
aS'correct'
p8
aI0
aI4
aS'true'
p9
aF5.345181685
aS'correct'
p10
aI0
aI5
aS'true'
p11
aF5.421212558
aS'correct'
p12
aI0
aI6
aS'true'
p13
aF5.367135408
aS'correct'
p14
aI0
aI7
aS'true'
p15
aF5.267076789
aS'correct'
p16
aI0
aI8
aS'true'
p17
aF5.390392231
aS'correct'
p18
aI0
aI9
aS'true'
p19
aF5.329419349
aS'correct'
p20
aI0
aI10
aS'true'
p21
aF5.322519745
aS'correct'
p22
asS'ssh-simplified/s3_clnt_4_true-unreach-call.cil.c'
p23
(lp24
I0
aI1
aS'true'
p25
aF4.504066776
aS'correct'
p26
aI0
aI2
aS'true'
p27
aF4.787055842
aS'correct'
p28
aI0
aI3
aS'true'
p29
aF5.104489923
aS'correct'
p30
aI0
aI4
aS'true'
p31
aF5.659634914
aS'correct'
p32
aI0
aI5
aS'true'
p33
aF6.266083125
aS'correct'
p34
aI0
aI6
aS'true'
p35
aF7.191233119
aS'correct'
p36
aI0
aI7
aS'true'
p37
aF8.887344867
aS'correct'
p38
aI0
aI8
aS'true'
p39
aF11.266595734
aS'correct'
p40
aI0
aI9
aS'true'
p41
aF13.992430047
aS'correct'
p42
aI0
aI10
aS'true'
p43
aF17.506983842
aS'correct'
p44
asS'locks/test_locks_7_true-unreach-call_true-valid-memsafety_false-termination.c'
p45
(lp46
I0
aI1
aS'true'
p47
aF3.348082146
aS'correct'
p48
aI0
aI2
aS'true'
p49
aF3.330996203
aS'correct'
p50
aI0
aI3
aS'true'
p51
aF3.312275227
aS'correct'
p52
aI0
aI4
aS'true'
p53
aF3.295535825
aS'correct'
p54
aI0
aI5
aS'true'
p55
aF3.250288341
aS'correct'
p56
aI0
aI6
aS'true'
p57
aF3.208491116
aS'correct'
p58
aI0
aI7
aS'true'
p59
aF3.278929468
aS'correct'
p60
aI0
aI8
aS'true'
p61
aF3.221232596
aS'correct'
p62
aI0
aI9
aS'true'
p63
aF3.330978826
aS'correct'
p64
aI0
aI10
aS'true'
p65
aF3.192340919
aS'correct'
p66
asS'ssh/s3_srvr.blast.07_true-unreach-call.i.cil.c'
p67
(lp68
I0
aI1
aS'true'
p69
aF6.962003531
aS'correct'
p70
aI0
aI2
aS'true'
p71
aF7.957409481
aS'correct'
p72
aI0
aI3
aS'true'
p73
aF11.064793054
aS'correct'
p74
aI0
aI4
aS'true'
p75
aF17.833391595
aS'correct'
p76
aI0
aI5
aS'true'
p77
aF33.629265535
aS'correct'
p78
aI0
aI6
aS'true'
p79
aF107.911611221
aS'correct'
p80
aI0
aI7
aS'true'
p81
aF276.046772378
aS'correct'
p82
aI0
aI8
aS'TIMEOUT'
p83
aI500000000
aS'error'
p84
aI0
aI9
aS'TIMEOUT'
p85
aI500000000
aS'error'
p86
aI0
aI10
aS'TIMEOUT'
p87
aI500000000
aS'error'
p88
asS'locks/test_locks_15_false-unreach-call_true-valid-memsafety_false-termination.c'
p89
(lp90
I0
aI1
aS'false(reach)'
p91
aF4.45008852
aS'correct'
p92
aI0
aI2
aS'false(reach)'
p93
aF4.385773803
aS'correct'
p94
aI0
aI3
aS'false(reach)'
p95
aF4.4451324
aS'correct'
p96
aI0
aI4
aS'false(reach)'
p97
aF4.406806637
aS'correct'
p98
aI0
aI5
aS'false(reach)'
p99
aF4.427432009
aS'correct'
p100
aI0
aI6
aS'false(reach)'
p101
aF4.528413056
aS'correct'
p102
aI0
aI7
aS'false(reach)'
p103
aF4.476563439
aS'correct'
p104
aI0
aI8
aS'false(reach)'
p105
aF4.44454035
aS'correct'
p106
aI0
aI9
aS'false(reach)'
p107
aF4.530247701
aS'correct'
p108
aI0
aI10
aS'false(reach)'
p109
aF4.497502093
aS'correct'
p110
asS'ssh-simplified/s3_clnt_2_false-unreach-call_true-termination.cil.c'
p111
(lp112
I0
aI1
aS'true'
p113
aI500000000
aS'wrong'
p114
aI0
aI2
aS'true'
p115
aI500000000
aS'wrong'
p116
aI0
aI3
aS'true'
p117
aI500000000
aS'wrong'
p118
aI0
aI4
aS'true'
p119
aI500000000
aS'wrong'
p120
aI0
aI5
aS'true'
p121
aI500000000
aS'wrong'
p122
aI0
aI6
aS'false(reach)'
p123
aF8.312401728
aS'correct'
p124
aI0
aI7
aS'false(reach)'
p125
aF8.271397063
aS'correct'
p126
aI0
aI8
aS'false(reach)'
p127
aF8.320753222
aS'correct'
p128
aI0
aI9
aS'false(reach)'
p129
aF8.26161956
aS'correct'
p130
aI0
aI10
aS'false(reach)'
p131
aF8.278354609
aS'correct'
p132
asS'ssh/s3_srvr.blast.10_false-unreach-call.i.cil.c'
p133
(lp134
I0
aI1
aS'true'
p135
aI500000000
aS'wrong'
p136
aI0
aI2
aS'true'
p137
aI500000000
aS'wrong'
p138
aI0
aI3
aS'true'
p139
aI500000000
aS'wrong'
p140
aI0
aI4
aS'true'
p141
aI500000000
aS'wrong'
p142
aI0
aI5
aS'true'
p143
aI500000000
aS'wrong'
p144
aI0
aI6
aS'true'
p145
aI500000000
aS'wrong'
p146
aI0
aI7
aS'TIMEOUT'
p147
aI500000000
aS'error'
p148
aI0
aI8
aS'TIMEOUT'
p149
aI500000000
aS'error'
p150
aI0
aI9
aS'TIMEOUT'
p151
aI500000000
aS'error'
p152
aI0
aI10
aS'TIMEOUT'
p153
aI500000000
aS'error'
p154
asS'ntdrivers-simplified/floppy_simpl3_false-unreach-call_true-valid-memsafety_true-termination.cil.c'
p155
(lp156
I0
aI1
aS'false(reach)'
p157
aF47.577216055
aS'correct'
p158
aI0
aI2
aS'false(reach)'
p159
aF47.841062586
aS'correct'
p160
aI0
aI3
aS'false(reach)'
p161
aF47.864040327
aS'correct'
p162
aI0
aI4
aS'false(reach)'
p163
aF47.497999223
aS'correct'
p164
aI0
aI5
aS'false(reach)'
p165
aF47.38332076
aS'correct'
p166
aI0
aI6
aS'false(reach)'
p167
aF48.324897028
aS'correct'
p168
aI0
aI7
aS'false(reach)'
p169
aF47.087105675
aS'correct'
p170
aI0
aI8
aS'false(reach)'
p171
aF47.839593483
aS'correct'
p172
aI0
aI9
aS'false(reach)'
p173
aF48.059860623
aS'correct'
p174
aI0
aI10
aS'false(reach)'
p175
aF47.642540646
aS'correct'
p176
asS'ssh-simplified/s3_srvr_7_true-unreach-call.cil.c'
p177
(lp178
I0
aI1
aS'true'
p179
aF5.002322883
aS'correct'
p180
aI0
aI2
aS'true'
p181
aF5.344310297
aS'correct'
p182
aI0
aI3
aS'true'
p183
aF5.812221841
aS'correct'
p184
aI0
aI4
aS'true'
p185
aF6.904816809
aS'correct'
p186
aI0
aI5
aS'true'
p187
aF8.611037661
aS'correct'
p188
aI0
aI6
aS'true'
p189
aF12.92503302
aS'correct'
p190
aI0
aI7
aS'true'
p191
aF20.470512981
aS'correct'
p192
aI0
aI8
aS'true'
p193
aF29.088382163
aS'correct'
p194
aI0
aI9
aS'true'
p195
aF39.65530002
aS'correct'
p196
aI0
aI10
aS'true'
p197
aF53.66736773
aS'correct'
p198
asS'locks/test_locks_5_true-unreach-call_true-valid-memsafety_false-termination.c'
p199
(lp200
I0
aI1
aS'true'
p201
aF3.403417121
aS'correct'
p202
aI0
aI2
aS'true'
p203
aF3.184266014
aS'correct'
p204
aI0
aI3
aS'true'
p205
aF3.228238245
aS'correct'
p206
aI0
aI4
aS'true'
p207
aF3.265073294
aS'correct'
p208
aI0
aI5
aS'true'
p209
aF3.198532272
aS'correct'
p210
aI0
aI6
aS'true'
p211
aF3.347223839
aS'correct'
p212
aI0
aI7
aS'true'
p213
aF3.18301407
aS'correct'
p214
aI0
aI8
aS'true'
p215
aF3.190849245
aS'correct'
p216
aI0
aI9
aS'true'
p217
aF3.31460332
aS'correct'
p218
aI0
aI10
aS'true'
p219
aF3.222262257
aS'correct'
p220
asS'ssh-simplified/s3_srvr_8_true-unreach-call.cil.c'
p221
(lp222
I0
aI1
aS'true'
p223
aF4.935455778
aS'correct'
p224
aI0
aI2
aS'true'
p225
aF5.263671085
aS'correct'
p226
aI0
aI3
aS'true'
p227
aF5.686168629
aS'correct'
p228
aI0
aI4
aS'true'
p229
aF6.46850983
aS'correct'
p230
aI0
aI5
aS'true'
p231
aF7.681150071
aS'correct'
p232
aI0
aI6
aS'true'
p233
aF9.611122931
aS'correct'
p234
aI0
aI7
aS'true'
p235
aF12.220554254
aS'correct'
p236
aI0
aI8
aS'true'
p237
aF15.510447552
aS'correct'
p238
aI0
aI9
aS'true'
p239
aF19.423795552
aS'correct'
p240
aI0
aI10
aS'true'
p241
aF23.492919517
aS'correct'
p242
asS'ntdrivers/kbfiltr_false-unreach-call.i.cil.c'
p243
(lp244
I0
aI1
aS'false(reach)'
p245
aF40.195081571
aS'correct'
p246
aI0
aI2
aS'false(reach)'
p247
aF40.120459104
aS'correct'
p248
aI0
aI3
aS'false(reach)'
p249
aF39.832704688
aS'correct'
p250
aI0
aI4
aS'false(reach)'
p251
aF40.332360567
aS'correct'
p252
aI0
aI5
aS'false(reach)'
p253
aF39.440906781
aS'correct'
p254
aI0
aI6
aS'false(reach)'
p255
aF40.791685393
aS'correct'
p256
aI0
aI7
aS'false(reach)'
p257
aF39.426205634
aS'correct'
p258
aI0
aI8
aS'false(reach)'
p259
aF39.845903111
aS'correct'
p260
aI0
aI9
aS'false(reach)'
p261
aF41.016544611
aS'correct'
p262
aI0
aI10
aS'false(reach)'
p263
aF39.550732425
aS'correct'
p264
asS'ssh/s3_srvr.blast.13_true-unreach-call.i.cil.c'
p265
(lp266
I0
aI1
aS'true'
p267
aF7.00062245
aS'correct'
p268
aI0
aI2
aS'true'
p269
aF7.931007445
aS'correct'
p270
aI0
aI3
aS'true'
p271
aF10.823295586
aS'correct'
p272
aI0
aI4
aS'true'
p273
aF17.542802347
aS'correct'
p274
aI0
aI5
aS'true'
p275
aF32.422492182
aS'correct'
p276
aI0
aI6
aS'true'
p277
aF107.76695091
aS'correct'
p278
aI0
aI7
aS'TIMEOUT'
p279
aI500000000
aS'error'
p280
aI0
aI8
aS'TIMEOUT'
p281
aI500000000
aS'error'
p282
aI0
aI9
aS'TIMEOUT'
p283
aI500000000
aS'error'
p284
aI0
aI10
aS'TIMEOUT'
p285
aI500000000
aS'error'
p286
asS'ssh-simplified/s3_srvr_14_false-unreach-call.cil.c'
p287
(lp288
I0
aI1
aS'true'
p289
aI500000000
aS'wrong'
p290
aI0
aI2
aS'false(reach)'
p291
aF6.434042721
aS'correct'
p292
aI0
aI3
aS'false(reach)'
p293
aF6.501956134
aS'correct'
p294
aI0
aI4
aS'false(reach)'
p295
aF6.446415805
aS'correct'
p296
aI0
aI5
aS'false(reach)'
p297
aF6.435010011
aS'correct'
p298
aI0
aI6
aS'false(reach)'
p299
aF6.554634651
aS'correct'
p300
aI0
aI7
aS'false(reach)'
p301
aF6.409282938
aS'correct'
p302
aI0
aI8
aS'false(reach)'
p303
aF6.461994822
aS'correct'
p304
aI0
aI9
aS'false(reach)'
p305
aF6.459477912
aS'correct'
p306
aI0
aI10
aS'false(reach)'
p307
aF6.453868037
aS'correct'
p308
asS'ssh/s3_clnt.blast.02_false-unreach-call.i.cil.c'
p309
(lp310
I0
aI1
aS'true'
p311
aI500000000
aS'wrong'
p312
aI0
aI2
aS'true'
p313
aI500000000
aS'wrong'
p314
aI0
aI3
aS'true'
p315
aI500000000
aS'wrong'
p316
aI0
aI4
aS'true'
p317
aI500000000
aS'wrong'
p318
aI0
aI5
aS'true'
p319
aI500000000
aS'wrong'
p320
aI0
aI6
aS'false(reach)'
p321
aF80.500519928
aS'correct'
p322
aI0
aI7
aS'false(reach)'
p323
aF84.099187968
aS'correct'
p324
aI0
aI8
aS'false(reach)'
p325
aF83.621811956
aS'correct'
p326
aI0
aI9
aS'false(reach)'
p327
aF81.371313698
aS'correct'
p328
aI0
aI10
aS'false(reach)'
p329
aF82.1547993
aS'correct'
p330
asS'ssh/s3_srvr.blast.13_false-unreach-call.i.cil.c'
p331
(lp332
I0
aI1
aS'true'
p333
aI500000000
aS'wrong'
p334
aI0
aI2
aS'true'
p335
aI500000000
aS'wrong'
p336
aI0
aI3
aS'true'
p337
aI500000000
aS'wrong'
p338
aI0
aI4
aS'true'
p339
aI500000000
aS'wrong'
p340
aI0
aI5
aS'true'
p341
aI500000000
aS'wrong'
p342
aI0
aI6
aS'false(reach)'
p343
aF69.816560183
aS'correct'
p344
aI0
aI7
aS'false(reach)'
p345
aF69.480461772
aS'correct'
p346
aI0
aI8
aS'false(reach)'
p347
aF68.91242698
aS'correct'
p348
aI0
aI9
aS'false(reach)'
p349
aF68.479779944
aS'correct'
p350
aI0
aI10
aS'false(reach)'
p351
aF70.160446864
aS'correct'
p352
asS'ssh-simplified/s3_srvr_1b_true-unreach-call_false-termination.cil.c'
p353
(lp354
I0
aI1
aS'true'
p355
aF3.234732561
aS'correct'
p356
aI0
aI2
aS'true'
p357
aF3.259813852
aS'correct'
p358
aI0
aI3
aS'true'
p359
aF3.268368383
aS'correct'
p360
aI0
aI4
aS'true'
p361
aF3.347769662
aS'correct'
p362
aI0
aI5
aS'true'
p363
aF3.39019691
aS'correct'
p364
aI0
aI6
aS'true'
p365
aF3.415406617
aS'correct'
p366
aI0
aI7
aS'true'
p367
aF3.566677509
aS'correct'
p368
aI0
aI8
aS'true'
p369
aF3.622132124
aS'correct'
p370
aI0
aI9
aS'true'
p371
aF3.707644543
aS'correct'
p372
aI0
aI10
aS'true'
p373
aF3.885847794
aS'correct'
p374
asS'ssh/s3_srvr.blast.14_true-unreach-call.i.cil.c'
p375
(lp376
I0
aI1
aS'true'
p377
aF7.236893294
aS'correct'
p378
aI0
aI2
aS'true'
p379
aF8.17461705
aS'correct'
p380
aI0
aI3
aS'true'
p381
aF9.961653749
aS'correct'
p382
aI0
aI4
aS'true'
p383
aF13.829124872
aS'correct'
p384
aI0
aI5
aS'true'
p385
aF22.14762285
aS'correct'
p386
aI0
aI6
aS'true'
p387
aF39.588611049
aS'correct'
p388
aI0
aI7
aS'true'
p389
aF70.798690264
aS'correct'
p390
aI0
aI8
aS'true'
p391
aF124.039529222
aS'correct'
p392
aI0
aI9
aS'true'
p393
aF241.533806215
aS'correct'
p394
aI0
aI10
aS'true'
p395
aF502.78014042
aS'correct'
p396
asS'ssh/s3_srvr.blast.12_false-unreach-call.i.cil.c'
p397
(lp398
I0
aI1
aS'true'
p399
aI500000000
aS'wrong'
p400
aI0
aI2
aS'true'
p401
aI500000000
aS'wrong'
p402
aI0
aI3
aS'true'
p403
aI500000000
aS'wrong'
p404
aI0
aI4
aS'true'
p405
aI500000000
aS'wrong'
p406
aI0
aI5
aS'true'
p407
aI500000000
aS'wrong'
p408
aI0
aI6
aS'false(reach)'
p409
aF58.314494783
aS'correct'
p410
aI0
aI7
aS'false(reach)'
p411
aF59.304128742
aS'correct'
p412
aI0
aI8
aS'false(reach)'
p413
aF59.058032415
aS'correct'
p414
aI0
aI9
aS'false(reach)'
p415
aF61.790010946
aS'correct'
p416
aI0
aI10
aS'false(reach)'
p417
aF58.864958947
aS'correct'
p418
asS'ssh-simplified/s3_srvr_4_true-unreach-call.cil.c'
p419
(lp420
I0
aI1
aS'true'
p421
aF4.988764017
aS'correct'
p422
aI0
aI2
aS'true'
p423
aF5.208892204
aS'correct'
p424
aI0
aI3
aS'true'
p425
aF5.558489348
aS'correct'
p426
aI0
aI4
aS'true'
p427
aF6.36780142
aS'correct'
p428
aI0
aI5
aS'true'
p429
aF7.538252225
aS'correct'
p430
aI0
aI6
aS'true'
p431
aF9.440562786
aS'correct'
p432
aI0
aI7
aS'true'
p433
aF12.022493006
aS'correct'
p434
aI0
aI8
aS'true'
p435
aF15.034926466
aS'correct'
p436
aI0
aI9
aS'true'
p437
aF18.380979164
aS'correct'
p438
aI0
aI10
aS'true'
p439
aF22.38253974
aS'correct'
p440
asS'ssh-simplified/s3_clnt_3_false-unreach-call.cil.c'
p441
(lp442
I0
aI1
aS'true'
p443
aI500000000
aS'wrong'
p444
aI0
aI2
aS'true'
p445
aI500000000
aS'wrong'
p446
aI0
aI3
aS'true'
p447
aI500000000
aS'wrong'
p448
aI0
aI4
aS'true'
p449
aI500000000
aS'wrong'
p450
aI0
aI5
aS'true'
p451
aI500000000
aS'wrong'
p452
aI0
aI6
aS'false(reach)'
p453
aF9.235991158
aS'correct'
p454
aI0
aI7
aS'false(reach)'
p455
aF9.285298096
aS'correct'
p456
aI0
aI8
aS'false(reach)'
p457
aF9.283200112
aS'correct'
p458
aI0
aI9
aS'false(reach)'
p459
aF9.281598658
aS'correct'
p460
aI0
aI10
aS'false(reach)'
p461
aF9.263355335
aS'correct'
p462
asS'ssh-simplified/s3_srvr_3_true-unreach-call.cil.c'
p463
(lp464
I0
aI1
aS'true'
p465
aF4.794559009
aS'correct'
p466
aI0
aI2
aS'true'
p467
aF5.13331973
aS'correct'
p468
aI0
aI3
aS'true'
p469
aF5.658310281
aS'correct'
p470
aI0
aI4
aS'true'
p471
aF6.276700206
aS'correct'
p472
aI0
aI5
aS'true'
p473
aF7.477201444
aS'correct'
p474
aI0
aI6
aS'true'
p475
aF9.406171677
aS'correct'
p476
aI0
aI7
aS'true'
p477
aF12.107703343
aS'correct'
p478
aI0
aI8
aS'true'
p479
aF15.406783228
aS'correct'
p480
aI0
aI9
aS'true'
p481
aF18.850205192
aS'correct'
p482
aI0
aI10
aS'true'
p483
aF23.355905197
aS'correct'
p484
asS'ssh/s3_clnt.blast.01_false-unreach-call.i.cil.c'
p485
(lp486
I0
aI1
aS'true'
p487
aI500000000
aS'wrong'
p488
aI0
aI2
aS'true'
p489
aI500000000
aS'wrong'
p490
aI0
aI3
aS'true'
p491
aI500000000
aS'wrong'
p492
aI0
aI4
aS'true'
p493
aI500000000
aS'wrong'
p494
aI0
aI5
aS'true'
p495
aI500000000
aS'wrong'
p496
aI0
aI6
aS'true'
p497
aI500000000
aS'wrong'
p498
aI0
aI7
aS'false(reach)'
p499
aF91.209798101
aS'correct'
p500
aI0
aI8
aS'false(reach)'
p501
aF90.790952467
aS'correct'
p502
aI0
aI9
aS'false(reach)'
p503
aF92.543577442
aS'correct'
p504
aI0
aI10
aS'false(reach)'
p505
aF90.334996839
aS'correct'
p506
asS'ntdrivers-simplified/kbfiltr_simpl1_true-unreach-call_true-valid-memsafety_true-termination.cil.c'
p507
(lp508
I0
aI1
aS'true'
p509
aF20.878678919
aS'correct'
p510
aI0
aI2
aS'true'
p511
aF20.844121231
aS'correct'
p512
aI0
aI3
aS'true'
p513
aF20.701817119
aS'correct'
p514
aI0
aI4
aS'true'
p515
aF20.991311146
aS'correct'
p516
aI0
aI5
aS'true'
p517
aF20.780150761
aS'correct'
p518
aI0
aI6
aS'true'
p519
aF20.998554292
aS'correct'
p520
aI0
aI7
aS'true'
p521
aF21.03721628
aS'correct'
p522
aI0
aI8
aS'true'
p523
aF20.859771976
aS'correct'
p524
aI0
aI9
aS'true'
p525
aF20.950639447
aS'correct'
p526
aI0
aI10
aS'true'
p527
aF20.577219654
aS'correct'
p528
asS'ssh/s3_srvr.blast.04_false-unreach-call.i.cil.c'
p529
(lp530
I0
aI1
aS'true'
p531
aI500000000
aS'wrong'
p532
aI0
aI2
aS'true'
p533
aI500000000
aS'wrong'
p534
aI0
aI3
aS'true'
p535
aI500000000
aS'wrong'
p536
aI0
aI4
aS'false(reach)'
p537
aF12.945372596
aS'correct'
p538
aI0
aI5
aS'false(reach)'
p539
aF13.053887784
aS'correct'
p540
aI0
aI6
aS'false(reach)'
p541
aF12.91838202
aS'correct'
p542
aI0
aI7
aS'false(reach)'
p543
aF12.880152148
aS'correct'
p544
aI0
aI8
aS'false(reach)'
p545
aF12.662278201
aS'correct'
p546
aI0
aI9
aS'false(reach)'
p547
aF12.991381066
aS'correct'
p548
aI0
aI10
aS'false(reach)'
p549
aF12.724596583
aS'correct'
p550
asS'ssh/s3_srvr.blast.06_false-unreach-call.i.cil.c'
p551
(lp552
I0
aI1
aS'true'
p553
aI500000000
aS'wrong'
p554
aI0
aI2
aS'true'
p555
aI500000000
aS'wrong'
p556
aI0
aI3
aS'true'
p557
aI500000000
aS'wrong'
p558
aI0
aI4
aS'true'
p559
aI500000000
aS'wrong'
p560
aI0
aI5
aS'true'
p561
aI500000000
aS'wrong'
p562
aI0
aI6
aS'false(reach)'
p563
aF59.161980862
aS'correct'
p564
aI0
aI7
aS'false(reach)'
p565
aF58.457518033
aS'correct'
p566
aI0
aI8
aS'false(reach)'
p567
aF59.086264127
aS'correct'
p568
aI0
aI9
aS'false(reach)'
p569
aF60.23257637
aS'correct'
p570
aI0
aI10
aS'false(reach)'
p571
aF58.514888989
aS'correct'
p572
asS'ssh-simplified/s3_srvr_2_true-unreach-call.cil.c'
p573
(lp574
I0
aI1
aS'true'
p575
aF4.908342697
aS'correct'
p576
aI0
aI2
aS'true'
p577
aF5.247319646
aS'correct'
p578
aI0
aI3
aS'true'
p579
aF5.604367255
aS'correct'
p580
aI0
aI4
aS'true'
p581
aF6.274954789
aS'correct'
p582
aI0
aI5
aS'true'
p583
aF7.502164274
aS'correct'
p584
aI0
aI6
aS'true'
p585
aF9.41064397
aS'correct'
p586
aI0
aI7
aS'true'
p587
aF11.871578485
aS'correct'
p588
aI0
aI8
aS'true'
p589
aF14.99338433
aS'correct'
p590
aI0
aI9
aS'true'
p591
aF18.34791777
aS'correct'
p592
aI0
aI10
aS'true'
p593
aF22.138265949
aS'correct'
p594
asS'ssh-simplified/s3_clnt_3_true-unreach-call.cil.c'
p595
(lp596
I0
aI1
aS'true'
p597
aF4.503790766
aS'correct'
p598
aI0
aI2
aS'true'
p599
aF4.79550455
aS'correct'
p600
aI0
aI3
aS'true'
p601
aF5.177395332
aS'correct'
p602
aI0
aI4
aS'true'
p603
aF5.635161846
aS'correct'
p604
aI0
aI5
aS'true'
p605
aF6.351844589
aS'correct'
p606
aI0
aI6
aS'true'
p607
aF7.269286779
aS'correct'
p608
aI0
aI7
aS'true'
p609
aF8.928496896
aS'correct'
p610
aI0
aI8
aS'true'
p611
aF11.391749223
aS'correct'
p612
aI0
aI9
aS'true'
p613
aF14.391425666
aS'correct'
p614
aI0
aI10
aS'true'
p615
aF17.559716859
aS'correct'
p616
asS'ssh/s3_srvr.blast.07_false-unreach-call.i.cil.c'
p617
(lp618
I0
aI1
aS'true'
p619
aI500000000
aS'wrong'
p620
aI0
aI2
aS'true'
p621
aI500000000
aS'wrong'
p622
aI0
aI3
aS'true'
p623
aI500000000
aS'wrong'
p624
aI0
aI4
aS'true'
p625
aI500000000
aS'wrong'
p626
aI0
aI5
aS'true'
p627
aI500000000
aS'wrong'
p628
aI0
aI6
aS'false(reach)'
p629
aF68.36032668
aS'correct'
p630
aI0
aI7
aS'false(reach)'
p631
aF68.257846464
aS'correct'
p632
aI0
aI8
aS'false(reach)'
p633
aF68.344104485
aS'correct'
p634
aI0
aI9
aS'false(reach)'
p635
aF67.405883598
aS'correct'
p636
aI0
aI10
aS'false(reach)'
p637
aF68.720648123
aS'correct'
p638
asS'ssh/s3_srvr.blast.09_false-unreach-call.i.cil.c'
p639
(lp640
I0
aI1
aS'true'
p641
aI500000000
aS'wrong'
p642
aI0
aI2
aS'true'
p643
aI500000000
aS'wrong'
p644
aI0
aI3
aS'true'
p645
aI500000000
aS'wrong'
p646
aI0
aI4
aS'true'
p647
aI500000000
aS'wrong'
p648
aI0
aI5
aS'true'
p649
aI500000000
aS'wrong'
p650
aI0
aI6
aS'false(reach)'
p651
aF67.551707108
aS'correct'
p652
aI0
aI7
aS'false(reach)'
p653
aF69.578430283
aS'correct'
p654
aI0
aI8
aS'false(reach)'
p655
aF69.208117252
aS'correct'
p656
aI0
aI9
aS'false(reach)'
p657
aF68.104740107
aS'correct'
p658
aI0
aI10
aS'false(reach)'
p659
aF70.034885189
aS'correct'
p660
asS'ssh/s3_srvr.blast.02_false-unreach-call.i.cil.c'
p661
(lp662
I0
aI1
aS'true'
p663
aI500000000
aS'wrong'
p664
aI0
aI2
aS'true'
p665
aI500000000
aS'wrong'
p666
aI0
aI3
aS'true'
p667
aI500000000
aS'wrong'
p668
aI0
aI4
aS'false(reach)'
p669
aF12.78745332
aS'correct'
p670
aI0
aI5
aS'false(reach)'
p671
aF12.91143479
aS'correct'
p672
aI0
aI6
aS'false(reach)'
p673
aF12.994706574
aS'correct'
p674
aI0
aI7
aS'false(reach)'
p675
aF12.908143761
aS'correct'
p676
aI0
aI8
aS'false(reach)'
p677
aF12.969661673
aS'correct'
p678
aI0
aI9
aS'false(reach)'
p679
aF12.899802371
aS'correct'
p680
aI0
aI10
aS'false(reach)'
p681
aF12.816003359
aS'correct'
p682
asS'locks/test_locks_9_true-unreach-call_true-valid-memsafety_false-termination.c'
p683
(lp684
I0
aI1
aS'true'
p685
aF3.334549614
aS'correct'
p686
aI0
aI2
aS'true'
p687
aF3.336784304
aS'correct'
p688
aI0
aI3
aS'true'
p689
aF3.387930084
aS'correct'
p690
aI0
aI4
aS'true'
p691
aF3.422350432
aS'correct'
p692
aI0
aI5
aS'true'
p693
aF3.358921404
aS'correct'
p694
aI0
aI6
aS'true'
p695
aF3.354350833
aS'correct'
p696
aI0
aI7
aS'true'
p697
aF3.409174221
aS'correct'
p698
aI0
aI8
aS'true'
p699
aF3.422359337
aS'correct'
p700
aI0
aI9
aS'true'
p701
aF3.433177422
aS'correct'
p702
aI0
aI10
aS'true'
p703
aF3.431726655
aS'correct'
p704
asS'ntdrivers/floppy_false-unreach-call.i.cil.c'
p705
(lp706
I0
aI1
aS'false(reach)'
p707
aF65.957709327
aS'correct'
p708
aI0
aI2
aS'false(reach)'
p709
aF65.466617754
aS'correct'
p710
aI0
aI3
aS'false(reach)'
p711
aF65.350842916
aS'correct'
p712
aI0
aI4
aS'false(reach)'
p713
aF65.147417663
aS'correct'
p714
aI0
aI5
aS'false(reach)'
p715
aF66.774965901
aS'correct'
p716
aI0
aI6
aS'false(reach)'
p717
aF64.504905344
aS'correct'
p718
aI0
aI7
aS'false(reach)'
p719
aF65.867982118
aS'correct'
p720
aI0
aI8
aS'false(reach)'
p721
aF65.242173539
aS'correct'
p722
aI0
aI9
aS'false(reach)'
p723
aF65.821448007
aS'correct'
p724
aI0
aI10
aS'false(reach)'
p725
aF65.287248538
aS'correct'
p726
asS'ssh/s3_srvr.blast.08_true-unreach-call.i.cil.c'
p727
(lp728
I0
aI1
aS'true'
p729
aF6.946791031
aS'correct'
p730
aI0
aI2
aS'true'
p731
aF7.689002793
aS'correct'
p732
aI0
aI3
aS'true'
p733
aF9.577598937
aS'correct'
p734
aI0
aI4
aS'true'
p735
aF13.559252586
aS'correct'
p736
aI0
aI5
aS'true'
p737
aF21.860993428
aS'correct'
p738
aI0
aI6
aS'true'
p739
aF38.486337167
aS'correct'
p740
aI0
aI7
aS'true'
p741
aF72.535237242
aS'correct'
p742
aI0
aI8
aS'true'
p743
aF122.914540605
aS'correct'
p744
aI0
aI9
aS'true'
p745
aF222.095178172
aS'correct'
p746
aI0
aI10
aS'true'
p747
aF403.181563055
aS'correct'
p748
asS'ssh/s3_clnt.blast.03_false-unreach-call.i.cil.c'
p749
(lp750
I0
aI1
aS'true'
p751
aI500000000
aS'wrong'
p752
aI0
aI2
aS'true'
p753
aI500000000
aS'wrong'
p754
aI0
aI3
aS'true'
p755
aI500000000
aS'wrong'
p756
aI0
aI4
aS'true'
p757
aI500000000
aS'wrong'
p758
aI0
aI5
aS'true'
p759
aI500000000
aS'wrong'
p760
aI0
aI6
aS'false(reach)'
p761
aF78.679572087
aS'correct'
p762
aI0
aI7
aS'false(reach)'
p763
aF76.377097935
aS'correct'
p764
aI0
aI8
aS'false(reach)'
p765
aF76.526285019
aS'correct'
p766
aI0
aI9
aS'false(reach)'
p767
aF78.635119728
aS'correct'
p768
aI0
aI10
aS'false(reach)'
p769
aF79.07077723
aS'correct'
p770
asS'locks/test_locks_12_true-unreach-call_true-valid-memsafety_false-termination.c'
p771
(lp772
I0
aI1
aS'true'
p773
aF4.238978093
aS'correct'
p774
aI0
aI2
aS'true'
p775
aF4.182198042
aS'correct'
p776
aI0
aI3
aS'true'
p777
aF4.11903987
aS'correct'
p778
aI0
aI4
aS'true'
p779
aF4.163939938
aS'correct'
p780
aI0
aI5
aS'true'
p781
aF4.100962659
aS'correct'
p782
aI0
aI6
aS'true'
p783
aF4.16781791
aS'correct'
p784
aI0
aI7
aS'true'
p785
aF4.12543097
aS'correct'
p786
aI0
aI8
aS'true'
p787
aF4.147865566
aS'correct'
p788
aI0
aI9
aS'true'
p789
aF4.191153387
aS'correct'
p790
aI0
aI10
aS'true'
p791
aF4.151967845
aS'correct'
p792
asS'ssh/s3_srvr.blast.15_true-unreach-call.i.cil.c'
p793
(lp794
I0
aI1
aS'true'
p795
aF7.095555157
aS'correct'
p796
aI0
aI2
aS'true'
p797
aF7.710874351
aS'correct'
p798
aI0
aI3
aS'true'
p799
aF9.953790606
aS'correct'
p800
aI0
aI4
aS'true'
p801
aF13.821845415
aS'correct'
p802
aI0
aI5
aS'true'
p803
aF23.181769126
aS'correct'
p804
aI0
aI6
aS'true'
p805
aF40.667249743
aS'correct'
p806
aI0
aI7
aS'true'
p807
aF77.50583027
aS'correct'
p808
aI0
aI8
aS'true'
p809
aF136.158739537
aS'correct'
p810
aI0
aI9
aS'true'
p811
aF233.465111623
aS'correct'
p812
aI0
aI10
aS'true'
p813
aF359.198434312
aS'correct'
p814
asS'ssh-simplified/s3_clnt_2_true-unreach-call_true-termination.cil.c'
p815
(lp816
I0
aI1
aS'true'
p817
aF4.669764059
aS'correct'
p818
aI0
aI2
aS'true'
p819
aF4.711407079
aS'correct'
p820
aI0
aI3
aS'true'
p821
aF5.165284592
aS'correct'
p822
aI0
aI4
aS'true'
p823
aF5.632071869
aS'correct'
p824
aI0
aI5
aS'true'
p825
aF6.303953858
aS'correct'
p826
aI0
aI6
aS'true'
p827
aF7.279397972
aS'correct'
p828
aI0
aI7
aS'true'
p829
aF8.92272985
aS'correct'
p830
aI0
aI8
aS'true'
p831
aF11.280600747
aS'correct'
p832
aI0
aI9
aS'true'
p833
aF14.193580275
aS'correct'
p834
aI0
aI10
aS'true'
p835
aF17.41928548
aS'correct'
p836
asS'ssh/s3_srvr.blast.01_false-unreach-call.i.cil.c'
p837
(lp838
I0
aI1
aS'true'
p839
aI500000000
aS'wrong'
p840
aI0
aI2
aS'true'
p841
aI500000000
aS'wrong'
p842
aI0
aI3
aS'true'
p843
aI500000000
aS'wrong'
p844
aI0
aI4
aS'false(reach)'
p845
aF15.791051947
aS'correct'
p846
aI0
aI5
aS'false(reach)'
p847
aF15.781058834
aS'correct'
p848
aI0
aI6
aS'false(reach)'
p849
aF16.014887411
aS'correct'
p850
aI0
aI7
aS'false(reach)'
p851
aF15.975013106
aS'correct'
p852
aI0
aI8
aS'false(reach)'
p853
aF16.01309482
aS'correct'
p854
aI0
aI9
aS'false(reach)'
p855
aF15.727125573
aS'correct'
p856
aI0
aI10
aS'false(reach)'
p857
aF15.851004443
aS'correct'
p858
asS'ssh-simplified/s3_srvr_6_false-unreach-call.cil.c'
p859
(lp860
I0
aI1
aS'false(reach)'
p861
aF6.281209124
aS'correct'
p862
aI0
aI2
aS'false(reach)'
p863
aF6.294266243
aS'correct'
p864
aI0
aI3
aS'false(reach)'
p865
aF6.27619674
aS'correct'
p866
aI0
aI4
aS'false(reach)'
p867
aF6.299667725
aS'correct'
p868
aI0
aI5
aS'false(reach)'
p869
aF6.30457282
aS'correct'
p870
aI0
aI6
aS'false(reach)'
p871
aF6.372364057
aS'correct'
p872
aI0
aI7
aS'false(reach)'
p873
aF6.317710328
aS'correct'
p874
aI0
aI8
aS'false(reach)'
p875
aF6.243687302
aS'correct'
p876
aI0
aI9
aS'false(reach)'
p877
aF6.236465582
aS'correct'
p878
aI0
aI10
aS'false(reach)'
p879
aF6.236002455
aS'correct'
p880
asS'ntdrivers/floppy2_true-unreach-call.i.cil.c'
p881
(lp882
I0
aI1
aS'true'
p883
aF104.487316948
aS'correct'
p884
aI0
aI2
aS'true'
p885
aF107.42811539
aS'correct'
p886
aI0
aI3
aS'true'
p887
aF106.408927458
aS'correct'
p888
aI0
aI4
aS'true'
p889
aF108.118796221
aS'correct'
p890
aI0
aI5
aS'true'
p891
aF110.894323372
aS'correct'
p892
aI0
aI6
aS'true'
p893
aF111.69313545
aS'correct'
p894
aI0
aI7
aS'true'
p895
aF113.068029875
aS'correct'
p896
aI0
aI8
aS'true'
p897
aF115.785170622
aS'correct'
p898
aI0
aI9
aS'true'
p899
aF115.068453174
aS'correct'
p900
aI0
aI10
aS'true'
p901
aF113.880792962
aS'correct'
p902
asS'ssh/s3_srvr.blast.16_false-unreach-call.i.cil.c'
p903
(lp904
I0
aI1
aS'true'
p905
aI500000000
aS'wrong'
p906
aI0
aI2
aS'true'
p907
aI500000000
aS'wrong'
p908
aI0
aI3
aS'true'
p909
aI500000000
aS'wrong'
p910
aI0
aI4
aS'true'
p911
aI500000000
aS'wrong'
p912
aI0
aI5
aS'true'
p913
aI500000000
aS'wrong'
p914
aI0
aI6
aS'false(reach)'
p915
aF61.742961103
aS'correct'
p916
aI0
aI7
aS'false(reach)'
p917
aF60.854942083
aS'correct'
p918
aI0
aI8
aS'false(reach)'
p919
aF61.058421509
aS'correct'
p920
aI0
aI9
aS'false(reach)'
p921
aF63.415203466
aS'correct'
p922
aI0
aI10
aS'false(reach)'
p923
aF60.048958055
aS'correct'
p924
asS'ssh-simplified/s3_clnt_1_true-unreach-call.cil.c'
p925
(lp926
I0
aI1
aS'true'
p927
aF4.547245454
aS'correct'
p928
aI0
aI2
aS'true'
p929
aF4.860238792
aS'correct'
p930
aI0
aI3
aS'true'
p931
aF5.138586385
aS'correct'
p932
aI0
aI4
aS'true'
p933
aF5.636836491
aS'correct'
p934
aI0
aI5
aS'true'
p935
aF6.343339797
aS'correct'
p936
aI0
aI6
aS'true'
p937
aF7.260952675
aS'correct'
p938
aI0
aI7
aS'true'
p939
aF8.930507903
aS'correct'
p940
aI0
aI8
aS'true'
p941
aF11.655829594
aS'correct'
p942
aI0
aI9
aS'true'
p943
aF15.180055584
aS'correct'
p944
aI0
aI10
aS'true'
p945
aF19.277729252
aS'correct'
p946
asS'ntdrivers-simplified/floppy_simpl4_false-unreach-call_true-valid-memsafety_true-termination.cil.c'
p947
(lp948
I0
aI1
aS'false(reach)'
p949
aF58.419209922
aS'correct'
p950
aI0
aI2
aS'false(reach)'
p951
aF58.374614659
aS'correct'
p952
aI0
aI3
aS'false(reach)'
p953
aF58.162424081
aS'correct'
p954
aI0
aI4
aS'false(reach)'
p955
aF58.066020814
aS'correct'
p956
aI0
aI5
aS'false(reach)'
p957
aF58.429276356
aS'correct'
p958
aI0
aI6
aS'false(reach)'
p959
aF58.192615341
aS'correct'
p960
aI0
aI7
aS'false(reach)'
p961
aF58.097449946
aS'correct'
p962
aI0
aI8
aS'false(reach)'
p963
aF59.084524775
aS'correct'
p964
aI0
aI9
aS'false(reach)'
p965
aF57.651268559
aS'correct'
p966
aI0
aI10
aS'false(reach)'
p967
aF58.601374106
aS'correct'
p968
asS'ssh/s3_srvr.blast.06_true-unreach-call.i.cil.c'
p969
(lp970
I0
aI1
aS'true'
p971
aF7.650989587
aS'correct'
p972
aI0
aI2
aS'true'
p973
aF8.282693892
aS'correct'
p974
aI0
aI3
aS'true'
p975
aF10.250874152
aS'correct'
p976
aI0
aI4
aS'true'
p977
aF14.615783696
aS'correct'
p978
aI0
aI5
aS'true'
p979
aF23.650368328
aS'correct'
p980
aI0
aI6
aS'true'
p981
aF42.283667723
aS'correct'
p982
aI0
aI7
aS'true'
p983
aF78.102907657
aS'correct'
p984
aI0
aI8
aS'true'
p985
aF142.959657223
aS'correct'
p986
aI0
aI9
aS'true'
p987
aF247.65362996
aS'correct'
p988
aI0
aI10
aS'true'
p989
aF516.679492171
aS'correct'
p990
asS'ntdrivers-simplified/diskperf_simpl1_true-unreach-call_true-valid-memsafety_true-termination.cil.c'
p991
(lp992
I0
aI1
aS'true'
p993
aF44.767643776
aS'correct'
p994
aI0
aI2
aS'true'
p995
aF44.852026085
aS'correct'
p996
aI0
aI3
aS'true'
p997
aF44.836074242
aS'correct'
p998
aI0
aI4
aS'true'
p999
aF44.929175638
aS'correct'
p1000
aI0
aI5
aS'true'
p1001
aF45.089888347
aS'correct'
p1002
aI0
aI6
aS'true'
p1003
aF45.074351119
aS'correct'
p1004
aI0
aI7
aS'true'
p1005
aF44.998850685
aS'correct'
p1006
aI0
aI8
aS'true'
p1007
aF44.482857645
aS'correct'
p1008
aI0
aI9
aS'true'
p1009
aF44.586871564
aS'correct'
p1010
aI0
aI10
aS'true'
p1011
aF45.026946794
aS'correct'
p1012
asS'ssh/s3_srvr.blast.03_false-unreach-call.i.cil.c'
p1013
(lp1014
I0
aI1
aS'true'
p1015
aI500000000
aS'wrong'
p1016
aI0
aI2
aS'true'
p1017
aI500000000
aS'wrong'
p1018
aI0
aI3
aS'true'
p1019
aI500000000
aS'wrong'
p1020
aI0
aI4
aS'false(reach)'
p1021
aF12.798249587
aS'correct'
p1022
aI0
aI5
aS'false(reach)'
p1023
aF12.887836089
aS'correct'
p1024
aI0
aI6
aS'false(reach)'
p1025
aF12.571333987
aS'correct'
p1026
aI0
aI7
aS'false(reach)'
p1027
aF12.835955626
aS'correct'
p1028
aI0
aI8
aS'false(reach)'
p1029
aF12.837812045
aS'correct'
p1030
aI0
aI9
aS'false(reach)'
p1031
aF12.85021848
aS'correct'
p1032
aI0
aI10
aS'false(reach)'
p1033
aF12.771209053
aS'correct'
p1034
asS'ssh-simplified/s3_srvr_1a_true-unreach-call_false-termination.cil.c'
p1035
(lp1036
I0
aI1
aS'true'
p1037
aF3.400112271
aS'correct'
p1038
aI0
aI2
aS'true'
p1039
aF3.521348338
aS'correct'
p1040
aI0
aI3
aS'true'
p1041
aF3.539113196
aS'correct'
p1042
aI0
aI4
aS'true'
p1043
aF3.598619993
aS'correct'
p1044
aI0
aI5
aS'true'
p1045
aF3.68267485
aS'correct'
p1046
aI0
aI6
aS'true'
p1047
aF3.8230189
aS'correct'
p1048
aI0
aI7
aS'true'
p1049
aF4.020856724
aS'correct'
p1050
aI0
aI8
aS'true'
p1051
aF4.21755314
aS'correct'
p1052
aI0
aI9
aS'true'
p1053
aF4.517487705
aS'correct'
p1054
aI0
aI10
aS'true'
p1055
aF4.839457129
aS'correct'
p1056
asS'ntdrivers-simplified/cdaudio_simpl1_true-unreach-call_true-valid-memsafety_true-termination.cil.c'
p1057
(lp1058
I0
aI1
aS'true'
p1059
aF72.634274945
aS'correct'
p1060
aI0
aI2
aS'true'
p1061
aF72.344557821
aS'correct'
p1062
aI0
aI3
aS'true'
p1063
aF72.230116453
aS'correct'
p1064
aI0
aI4
aS'true'
p1065
aF71.626239051
aS'correct'
p1066
aI0
aI5
aS'true'
p1067
aF72.118352486
aS'correct'
p1068
aI0
aI6
aS'true'
p1069
aF71.768047962
aS'correct'
p1070
aI0
aI7
aS'true'
p1071
aF71.834809135
aS'correct'
p1072
aI0
aI8
aS'true'
p1073
aF71.957270566
aS'correct'
p1074
aI0
aI9
aS'true'
p1075
aF72.404151488
aS'correct'
p1076
aI0
aI10
aS'true'
p1077
aF72.201035254
aS'correct'
p1078
asS'ssh-simplified/s3_srvr_11_false-unreach-call.cil.c'
p1079
(lp1080
I0
aI1
aS'true'
p1081
aI500000000
aS'wrong'
p1082
aI0
aI2
aS'true'
p1083
aI500000000
aS'wrong'
p1084
aI0
aI3
aS'true'
p1085
aI500000000
aS'wrong'
p1086
aI0
aI4
aS'true'
p1087
aI500000000
aS'wrong'
p1088
aI0
aI5
aS'true'
p1089
aI500000000
aS'wrong'
p1090
aI0
aI6
aS'true'
p1091
aI500000000
aS'wrong'
p1092
aI0
aI7
aS'false(reach)'
p1093
aF19.881067227
aS'correct'
p1094
aI0
aI8
aS'false(reach)'
p1095
aF19.789594875
aS'correct'
p1096
aI0
aI9
aS'false(reach)'
p1097
aF19.815316145
aS'correct'
p1098
aI0
aI10
aS'false(reach)'
p1099
aF19.739524158
aS'correct'
p1100
asS'ssh/s3_srvr.blast.14_false-unreach-call.i.cil.c'
p1101
(lp1102
I0
aI1
aS'true'
p1103
aI500000000
aS'wrong'
p1104
aI0
aI2
aS'true'
p1105
aI500000000
aS'wrong'
p1106
aI0
aI3
aS'true'
p1107
aI500000000
aS'wrong'
p1108
aI0
aI4
aS'true'
p1109
aI500000000
aS'wrong'
p1110
aI0
aI5
aS'true'
p1111
aI500000000
aS'wrong'
p1112
aI0
aI6
aS'false(reach)'
p1113
aF57.397182907
aS'correct'
p1114
aI0
aI7
aS'false(reach)'
p1115
aF57.816492537
aS'correct'
p1116
aI0
aI8
aS'false(reach)'
p1117
aF57.937894938
aS'correct'
p1118
aI0
aI9
aS'false(reach)'
p1119
aF58.13678828
aS'correct'
p1120
aI0
aI10
aS'false(reach)'
p1121
aF60.575536431
aS'correct'
p1122
asS'ntdrivers-simplified/floppy_simpl4_true-unreach-call_true-valid-memsafety_true-termination.cil.c'
p1123
(lp1124
I0
aI1
aS'true'
p1125
aF58.787148849
aS'correct'
p1126
aI0
aI2
aS'true'
p1127
aF59.803781642
aS'correct'
p1128
aI0
aI3
aS'true'
p1129
aF61.170510082
aS'correct'
p1130
aI0
aI4
aS'true'
p1131
aF62.452965329
aS'correct'
p1132
aI0
aI5
aS'true'
p1133
aF63.02522364
aS'correct'
p1134
aI0
aI6
aS'true'
p1135
aF64.276179435
aS'correct'
p1136
aI0
aI7
aS'true'
p1137
aF65.546354969
aS'correct'
p1138
aI0
aI8
aS'true'
p1139
aF67.238313008
aS'correct'
p1140
aI0
aI9
aS'true'
p1141
aF68.201271585
aS'correct'
p1142
aI0
aI10
aS'true'
p1143
aF69.245489814
aS'correct'
p1144
asS'ntdrivers-simplified/floppy_simpl3_true-unreach-call_true-valid-memsafety_true-termination.cil.c'
p1145
(lp1146
I0
aI1
aS'true'
p1147
aF50.833292316
aS'correct'
p1148
aI0
aI2
aS'true'
p1149
aF51.603814379
aS'correct'
p1150
aI0
aI3
aS'true'
p1151
aF52.026742536
aS'correct'
p1152
aI0
aI4
aS'true'
p1153
aF52.554965444
aS'correct'
p1154
aI0
aI5
aS'true'
p1155
aF53.001976265
aS'correct'
p1156
aI0
aI6
aS'true'
p1157
aF53.401306963
aS'correct'
p1158
aI0
aI7
aS'true'
p1159
aF53.87775424
aS'correct'
p1160
aI0
aI8
aS'true'
p1161
aF54.470932997
aS'correct'
p1162
aI0
aI9
aS'true'
p1163
aF54.373606089
aS'correct'
p1164
aI0
aI10
aS'true'
p1165
aF56.133063254
aS'correct'
p1166
asS'ssh/s3_srvr.blast.01_true-unreach-call.i.cil.c'
p1167
(lp1168
I0
aI1
aS'true'
p1169
aF7.147478367
aS'correct'
p1170
aI0
aI2
aS'true'
p1171
aF7.493676538
aS'correct'
p1172
aI0
aI3
aS'true'
p1173
aF9.42041782
aS'correct'
p1174
aI0
aI4
aS'true'
p1175
aF12.938585067
aS'correct'
p1176
aI0
aI5
aS'true'
p1177
aF21.041739019
aS'correct'
p1178
aI0
aI6
aS'true'
p1179
aF85.428364383
aS'correct'
p1180
aI0
aI7
aS'true'
p1181
aF193.253894262
aS'correct'
p1182
aI0
aI8
aS'true'
p1183
aF571.239818354
aS'correct'
p1184
aI0
aI9
aS'TIMEOUT'
p1185
aI500000000
aS'error'
p1186
aI0
aI10
aS'TIMEOUT'
p1187
aI500000000
aS'error'
p1188
asS'ssh-simplified/s3_srvr_10_false-unreach-call.cil.c'
p1189
(lp1190
I0
aI1
aS'false(reach)'
p1191
aF5.78021991
aS'correct'
p1192
aI0
aI2
aS'false(reach)'
p1193
aF5.815868501
aS'correct'
p1194
aI0
aI3
aS'false(reach)'
p1195
aF5.877880046
aS'correct'
p1196
aI0
aI4
aS'false(reach)'
p1197
aF5.751932615
aS'correct'
p1198
aI0
aI5
aS'false(reach)'
p1199
aF5.977704657
aS'correct'
p1200
aI0
aI6
aS'false(reach)'
p1201
aF5.910041191
aS'correct'
p1202
aI0
aI7
aS'false(reach)'
p1203
aF5.829033776
aS'correct'
p1204
aI0
aI8
aS'false(reach)'
p1205
aF5.815137746
aS'correct'
p1206
aI0
aI9
aS'false(reach)'
p1207
aF5.819459893
aS'correct'
p1208
aI0
aI10
aS'false(reach)'
p1209
aF5.878027564
aS'correct'
p1210
asS'ssh/s3_srvr.blast.15_false-unreach-call.i.cil.c'
p1211
(lp1212
I0
aI1
aS'true'
p1213
aI500000000
aS'wrong'
p1214
aI0
aI2
aS'true'
p1215
aI500000000
aS'wrong'
p1216
aI0
aI3
aS'true'
p1217
aI500000000
aS'wrong'
p1218
aI0
aI4
aS'true'
p1219
aI500000000
aS'wrong'
p1220
aI0
aI5
aS'true'
p1221
aI500000000
aS'wrong'
p1222
aI0
aI6
aS'true'
p1223
aI500000000
aS'wrong'
p1224
aI0
aI7
aS'TIMEOUT'
p1225
aI500000000
aS'error'
p1226
aI0
aI8
aS'TIMEOUT'
p1227
aI500000000
aS'error'
p1228
aI0
aI9
aS'TIMEOUT'
p1229
aI500000000
aS'error'
p1230
aI0
aI10
aS'TIMEOUT'
p1231
aI500000000
aS'error'
p1232
asS'ntdrivers-simplified/kbfiltr_simpl2_false-unreach-call_true-valid-memsafety_true-termination.cil.c'
p1233
(lp1234
I0
aI1
aS'false(reach)'
p1235
aF25.549902686
aS'correct'
p1236
aI0
aI2
aS'false(reach)'
p1237
aF25.990443677
aS'correct'
p1238
aI0
aI3
aS'false(reach)'
p1239
aF25.459666202
aS'correct'
p1240
aI0
aI4
aS'false(reach)'
p1241
aF25.480441191
aS'correct'
p1242
aI0
aI5
aS'false(reach)'
p1243
aF25.55821422
aS'correct'
p1244
aI0
aI6
aS'false(reach)'
p1245
aF25.41877797
aS'correct'
p1246
aI0
aI7
aS'false(reach)'
p1247
aF25.543026773
aS'correct'
p1248
aI0
aI8
aS'false(reach)'
p1249
aF25.248676142
aS'correct'
p1250
aI0
aI9
aS'false(reach)'
p1251
aF25.831469741
aS'correct'
p1252
aI0
aI10
aS'false(reach)'
p1253
aF25.566956003
aS'correct'
p1254
asS'ntdrivers-simplified/kbfiltr_simpl2_true-unreach-call_true-valid-memsafety_true-termination.cil.c'
p1255
(lp1256
I0
aI1
aS'true'
p1257
aF22.843095313
aS'correct'
p1258
aI0
aI2
aS'true'
p1259
aF23.416427458
aS'correct'
p1260
aI0
aI3
aS'true'
p1261
aF22.852405874
aS'correct'
p1262
aI0
aI4
aS'true'
p1263
aF22.683522306
aS'correct'
p1264
aI0
aI5
aS'true'
p1265
aF22.858417381
aS'correct'
p1266
aI0
aI6
aS'true'
p1267
aF23.071670582
aS'correct'
p1268
aI0
aI7
aS'true'
p1269
aF22.560450903
aS'correct'
p1270
aI0
aI8
aS'true'
p1271
aF23.086368063
aS'correct'
p1272
aI0
aI9
aS'true'
p1273
aF22.766014342
aS'correct'
p1274
aI0
aI10
aS'true'
p1275
aF22.594668626
aS'correct'
p1276
asS'ssh/s3_clnt.blast.04_false-unreach-call.i.cil.c'
p1277
(lp1278
I0
aI1
aS'true'
p1279
aI500000000
aS'wrong'
p1280
aI0
aI2
aS'true'
p1281
aI500000000
aS'wrong'
p1282
aI0
aI3
aS'true'
p1283
aI500000000
aS'wrong'
p1284
aI0
aI4
aS'true'
p1285
aI500000000
aS'wrong'
p1286
aI0
aI5
aS'true'
p1287
aI500000000
aS'wrong'
p1288
aI0
aI6
aS'false(reach)'
p1289
aF67.474707086
aS'correct'
p1290
aI0
aI7
aS'false(reach)'
p1291
aF68.283635059
aS'correct'
p1292
aI0
aI8
aS'false(reach)'
p1293
aF67.414742729
aS'correct'
p1294
aI0
aI9
aS'false(reach)'
p1295
aF68.176745742
aS'correct'
p1296
aI0
aI10
aS'false(reach)'
p1297
aF68.473783326
aS'correct'
p1298
asS'ssh-simplified/s3_srvr_6_true-unreach-call.cil.c'
p1299
(lp1300
I0
aI1
aS'true'
p1301
aF5.317074963
aS'correct'
p1302
aI0
aI2
aS'true'
p1303
aF5.629822874
aS'correct'
p1304
aI0
aI3
aS'true'
p1305
aF6.250731567
aS'correct'
p1306
aI0
aI4
aS'true'
p1307
aF6.982153512
aS'correct'
p1308
aI0
aI5
aS'true'
p1309
aF8.379784269
aS'correct'
p1310
aI0
aI6
aS'true'
p1311
aF10.543479564
aS'correct'
p1312
aI0
aI7
aS'true'
p1313
aF14.693567827
aS'correct'
p1314
aI0
aI8
aS'true'
p1315
aF20.288496047
aS'correct'
p1316
aI0
aI9
aS'true'
p1317
aF27.787773934
aS'correct'
p1318
aI0
aI10
aS'true'
p1319
aF39.868144583
aS'correct'
p1320
asS'locks/test_locks_11_true-unreach-call_true-valid-memsafety_false-termination.c'
p1321
(lp1322
I0
aI1
aS'true'
p1323
aF3.717523446
aS'correct'
p1324
aI0
aI2
aS'true'
p1325
aF3.767113925
aS'correct'
p1326
aI0
aI3
aS'true'
p1327
aF3.79953453
aS'correct'
p1328
aI0
aI4
aS'true'
p1329
aF3.762029179
aS'correct'
p1330
aI0
aI5
aS'true'
p1331
aF3.684632128
aS'correct'
p1332
aI0
aI6
aS'true'
p1333
aF3.698270399
aS'correct'
p1334
aI0
aI7
aS'true'
p1335
aF3.686353106
aS'correct'
p1336
aI0
aI8
aS'true'
p1337
aF3.726195201
aS'correct'
p1338
aI0
aI9
aS'true'
p1339
aF3.789485808
aS'correct'
p1340
aI0
aI10
aS'true'
p1341
aF3.682624506
aS'correct'
p1342
asS'locks/test_locks_10_true-unreach-call_true-valid-memsafety_false-termination.c'
p1343
(lp1344
I0
aI1
aS'true'
p1345
aF3.546040676
aS'correct'
p1346
aI0
aI2
aS'true'
p1347
aF3.649183788
aS'correct'
p1348
aI0
aI3
aS'true'
p1349
aF3.500056079
aS'correct'
p1350
aI0
aI4
aS'true'
p1351
aF3.493331736
aS'correct'
p1352
aI0
aI5
aS'true'
p1353
aF3.533838122
aS'correct'
p1354
aI0
aI6
aS'true'
p1355
aF3.466445496
aS'correct'
p1356
aI0
aI7
aS'true'
p1357
aF3.471762992
aS'correct'
p1358
aI0
aI8
aS'true'
p1359
aF3.475100479
aS'correct'
p1360
aI0
aI9
aS'true'
p1361
aF3.494943786
aS'correct'
p1362
aI0
aI10
aS'true'
p1363
aF3.482760579
aS'correct'
p1364
asS'locks/test_locks_14_false-unreach-call_true-valid-memsafety_false-termination.c'
p1365
(lp1366
I0
aI1
aS'false(reach)'
p1367
aF4.577567005
aS'correct'
p1368
aI0
aI2
aS'false(reach)'
p1369
aF4.411687679
aS'correct'
p1370
aI0
aI3
aS'false(reach)'
p1371
aF4.383135895
aS'correct'
p1372
aI0
aI4
aS'false(reach)'
p1373
aF4.351122982
aS'correct'
p1374
aI0
aI5
aS'false(reach)'
p1375
aF4.420490198
aS'correct'
p1376
aI0
aI6
aS'false(reach)'
p1377
aF4.363549965
aS'correct'
p1378
aI0
aI7
aS'false(reach)'
p1379
aF4.40623374
aS'correct'
p1380
aI0
aI8
aS'false(reach)'
p1381
aF4.329266647
aS'correct'
p1382
aI0
aI9
aS'false(reach)'
p1383
aF4.396570213
aS'correct'
p1384
aI0
aI10
aS'false(reach)'
p1385
aF4.461928457
aS'correct'
p1386
asS'locks/test_locks_15_true-unreach-call_true-valid-memsafety_false-termination.c'
p1387
(lp1388
I0
aI1
aS'true'
p1389
aF9.436642775
aS'correct'
p1390
aI0
aI2
aS'true'
p1391
aF9.324036342
aS'correct'
p1392
aI0
aI3
aS'true'
p1393
aF9.212186209
aS'correct'
p1394
aI0
aI4
aS'true'
p1395
aF9.204587965
aS'correct'
p1396
aI0
aI5
aS'true'
p1397
aF9.18675382
aS'correct'
p1398
aI0
aI6
aS'true'
p1399
aF9.181097987
aS'correct'
p1400
aI0
aI7
aS'true'
p1401
aF9.20892693
aS'correct'
p1402
aI0
aI8
aS'true'
p1403
aF9.252044416
aS'correct'
p1404
aI0
aI9
aS'true'
p1405
aF9.223879396
aS'correct'
p1406
aI0
aI10
aS'true'
p1407
aF9.193742888
aS'correct'
p1408
asS'ntdrivers/parport_false-unreach-call.i.cil.c'
p1409
(lp1410
I0
aI1
aS'false(reach)'
p1411
aF36.733328934
aS'correct'
p1412
aI0
aI2
aS'false(reach)'
p1413
aF36.521029647
aS'correct'
p1414
aI0
aI3
aS'false(reach)'
p1415
aF37.361375705
aS'correct'
p1416
aI0
aI4
aS'false(reach)'
p1417
aF36.625644073
aS'correct'
p1418
aI0
aI5
aS'false(reach)'
p1419
aF36.938030309
aS'correct'
p1420
aI0
aI6
aS'false(reach)'
p1421
aF35.987906712
aS'correct'
p1422
aI0
aI7
aS'false(reach)'
p1423
aF36.560668404
aS'correct'
p1424
aI0
aI8
aS'false(reach)'
p1425
aF36.342357065
aS'correct'
p1426
aI0
aI9
aS'false(reach)'
p1427
aF36.455649502
aS'correct'
p1428
aI0
aI10
aS'false(reach)'
p1429
aF36.746500352
aS'correct'
p1430
asS'ntdrivers/parport_true-unreach-call.i.cil.c'
p1431
(lp1432
I0
aI1
aS'true'
p1433
aF96.315020136
aS'correct'
p1434
aI0
aI2
aS'true'
p1435
aF93.396662156
aS'correct'
p1436
aI0
aI3
aS'true'
p1437
aF95.094314698
aS'correct'
p1438
aI0
aI4
aS'true'
p1439
aF94.833957154
aS'correct'
p1440
aI0
aI5
aS'true'
p1441
aF93.465556619
aS'correct'
p1442
aI0
aI6
aS'true'
p1443
aF95.300019673
aS'correct'
p1444
aI0
aI7
aS'true'
p1445
aF94.663756998
aS'correct'
p1446
aI0
aI8
aS'true'
p1447
aF94.639091322
aS'correct'
p1448
aI0
aI9
aS'true'
p1449
aF94.130040114
aS'correct'
p1450
aI0
aI10
aS'true'
p1451
aF95.667655985
aS'correct'
p1452
asS'ssh-simplified/s3_srvr_1_true-unreach-call.cil.c'
p1453
(lp1454
I0
aI1
aS'true'
p1455
aF4.891354717
aS'correct'
p1456
aI0
aI2
aS'true'
p1457
aF5.329837575
aS'correct'
p1458
aI0
aI3
aS'true'
p1459
aF6.509556774
aS'correct'
p1460
aI0
aI4
aS'true'
p1461
aF8.18931485
aS'correct'
p1462
aI0
aI5
aS'true'
p1463
aF10.058284647
aS'correct'
p1464
aI0
aI6
aS'true'
p1465
aF12.47465345
aS'correct'
p1466
aI0
aI7
aS'true'
p1467
aF15.230048499
aS'correct'
p1468
aI0
aI8
aS'true'
p1469
aF18.763537343
aS'correct'
p1470
aI0
aI9
aS'true'
p1471
aF22.334955676
aS'correct'
p1472
aI0
aI10
aS'true'
p1473
aF26.500203132
aS'correct'
p1474
asS'ssh-simplified/s3_clnt_1_false-unreach-call.cil.c'
p1475
(lp1476
I0
aI1
aS'true'
p1477
aI500000000
aS'wrong'
p1478
aI0
aI2
aS'true'
p1479
aI500000000
aS'wrong'
p1480
aI0
aI3
aS'true'
p1481
aI500000000
aS'wrong'
p1482
aI0
aI4
aS'true'
p1483
aI500000000
aS'wrong'
p1484
aI0
aI5
aS'true'
p1485
aI500000000
aS'wrong'
p1486
aI0
aI6
aS'false(reach)'
p1487
aF8.192812542
aS'correct'
p1488
aI0
aI7
aS'false(reach)'
p1489
aF8.419393309
aS'correct'
p1490
aI0
aI8
aS'false(reach)'
p1491
aF8.195175215
aS'correct'
p1492
aI0
aI9
aS'false(reach)'
p1493
aF8.199680909
aS'correct'
p1494
aI0
aI10
aS'false(reach)'
p1495
aF8.379097344
aS'correct'
p1496
asS'ssh-simplified/s3_srvr_12_false-unreach-call.cil.c'
p1497
(lp1498
I0
aI1
aS'true'
p1499
aI500000000
aS'wrong'
p1500
aI0
aI2
aS'true'
p1501
aI500000000
aS'wrong'
p1502
aI0
aI3
aS'true'
p1503
aI500000000
aS'wrong'
p1504
aI0
aI4
aS'true'
p1505
aI500000000
aS'wrong'
p1506
aI0
aI5
aS'true'
p1507
aI500000000
aS'wrong'
p1508
aI0
aI6
aS'false(reach)'
p1509
aF16.012856574
aS'correct'
p1510
aI0
aI7
aS'false(reach)'
p1511
aF15.945285129
aS'correct'
p1512
aI0
aI8
aS'false(reach)'
p1513
aF15.804728986
aS'correct'
p1514
aI0
aI9
aS'false(reach)'
p1515
aF15.885073355
aS'correct'
p1516
aI0
aI10
aS'false(reach)'
p1517
aF16.004414003
aS'correct'
p1518
asS'ssh/s3_clnt.blast.03_true-unreach-call.i.cil.c'
p1519
(lp1520
I0
aI1
aS'true'
p1521
aF6.059412629
aS'correct'
p1522
aI0
aI2
aS'true'
p1523
aF6.624743901
aS'correct'
p1524
aI0
aI3
aS'true'
p1525
aF7.978852783
aS'correct'
p1526
aI0
aI4
aS'true'
p1527
aF11.000206313
aS'correct'
p1528
aI0
aI5
aS'true'
p1529
aF16.716334065
aS'correct'
p1530
aI0
aI6
aS'true'
p1531
aF106.432755813
aS'correct'
p1532
aI0
aI7
aS'true'
p1533
aF188.730961244
aS'correct'
p1534
aI0
aI8
aS'TIMEOUT'
p1535
aI500000000
aS'error'
p1536
aI0
aI9
aS'TIMEOUT'
p1537
aI500000000
aS'error'
p1538
aI0
aI10
aS'TIMEOUT'
p1539
aI500000000
aS'error'
p1540
asS'ntdrivers/floppy_true-unreach-call_true-valid-memsafety.i.cil.c'
p1541
(lp1542
I0
aI1
aS'true'
p1543
aF300.200155787
aS'correct'
p1544
aI0
aI2
aS'true'
p1545
aF302.023534899
aS'correct'
p1546
aI0
aI3
aS'true'
p1547
aF302.56295738
aS'correct'
p1548
aI0
aI4
aS'true'
p1549
aF306.005120312
aS'correct'
p1550
aI0
aI5
aS'true'
p1551
aF311.900198441
aS'correct'
p1552
aI0
aI6
aS'true'
p1553
aF312.340375504
aS'correct'
p1554
aI0
aI7
aS'true'
p1555
aF316.646058075
aS'correct'
p1556
aI0
aI8
aS'true'
p1557
aF316.58113013
aS'correct'
p1558
aI0
aI9
aS'true'
p1559
aF321.34987847
aS'correct'
p1560
aI0
aI10
aS'true'
p1561
aF319.338651151
aS'correct'
p1562
asS'ntdrivers/diskperf_false-unreach-call.i.cil.c'
p1563
(lp1564
I0
aI1
aS'false(reach)'
p1565
aF54.081049963
aS'correct'
p1566
aI0
aI2
aS'false(reach)'
p1567
aF54.482171588
aS'correct'
p1568
aI0
aI3
aS'false(reach)'
p1569
aF55.075528315
aS'correct'
p1570
aI0
aI4
aS'false(reach)'
p1571
aF54.028824372
aS'correct'
p1572
aI0
aI5
aS'false(reach)'
p1573
aF54.503415141
aS'correct'
p1574
aI0
aI6
aS'false(reach)'
p1575
aF54.448077408
aS'correct'
p1576
aI0
aI7
aS'false(reach)'
p1577
aF55.048242429
aS'correct'
p1578
aI0
aI8
aS'false(reach)'
p1579
aF55.63599192
aS'correct'
p1580
aI0
aI9
aS'false(reach)'
p1581
aF53.98351082
aS'correct'
p1582
aI0
aI10
aS'false(reach)'
p1583
aF54.229551629
aS'correct'
p1584
asS'ssh-simplified/s3_srvr_13_false-unreach-call.cil.c'
p1585
(lp1586
I0
aI1
aS'true'
p1587
aI500000000
aS'wrong'
p1588
aI0
aI2
aS'true'
p1589
aI500000000
aS'wrong'
p1590
aI0
aI3
aS'true'
p1591
aI500000000
aS'wrong'
p1592
aI0
aI4
aS'false(reach)'
p1593
aF9.063842018
aS'correct'
p1594
aI0
aI5
aS'false(reach)'
p1595
aF8.931051235
aS'correct'
p1596
aI0
aI6
aS'false(reach)'
p1597
aF8.991249762
aS'correct'
p1598
aI0
aI7
aS'false(reach)'
p1599
aF8.973609598
aS'correct'
p1600
aI0
aI8
aS'false(reach)'
p1601
aF9.035755842
aS'correct'
p1602
aI0
aI9
aS'false(reach)'
p1603
aF8.998460544
aS'correct'
p1604
aI0
aI10
aS'false(reach)'
p1605
aF8.931307956
aS'correct'
p1606
asS'ssh/s3_srvr.blast.11_true-unreach-call.i.cil.c'
p1607
(lp1608
I0
aI1
aS'true'
p1609
aF6.901231378
aS'correct'
p1610
aI0
aI2
aS'true'
p1611
aF8.039086218
aS'correct'
p1612
aI0
aI3
aS'true'
p1613
aF10.981963302
aS'correct'
p1614
aI0
aI4
aS'true'
p1615
aF17.75546701
aS'correct'
p1616
aI0
aI5
aS'true'
p1617
aF33.095221962
aS'correct'
p1618
aI0
aI6
aS'true'
p1619
aF113.484458546
aS'correct'
p1620
aI0
aI7
aS'true'
p1621
aF321.382272572
aS'correct'
p1622
aI0
aI8
aS'TIMEOUT'
p1623
aI500000000
aS'error'
p1624
aI0
aI9
aS'TIMEOUT'
p1625
aI500000000
aS'error'
p1626
aI0
aI10
aS'TIMEOUT'
p1627
aI500000000
aS'error'
p1628
asS'ssh/s3_srvr.blast.11_false-unreach-call.i.cil.c'
p1629
(lp1630
I0
aI1
aS'true'
p1631
aI500000000
aS'wrong'
p1632
aI0
aI2
aS'true'
p1633
aI500000000
aS'wrong'
p1634
aI0
aI3
aS'true'
p1635
aI500000000
aS'wrong'
p1636
aI0
aI4
aS'true'
p1637
aI500000000
aS'wrong'
p1638
aI0
aI5
aS'false(reach)'
p1639
aF34.698153418
aS'correct'
p1640
aI0
aI6
aS'false(reach)'
p1641
aF34.839870456
aS'correct'
p1642
aI0
aI7
aS'false(reach)'
p1643
aF34.55790427
aS'correct'
p1644
aI0
aI8
aS'false(reach)'
p1645
aF34.969141099
aS'correct'
p1646
aI0
aI9
aS'false(reach)'
p1647
aF34.673135155
aS'correct'
p1648
aI0
aI10
aS'false(reach)'
p1649
aF34.655127658
aS'correct'
p1650
asS'ssh/s3_srvr.blast.09_true-unreach-call.i.cil.c'
p1651
(lp1652
I0
aI1
aS'true'
p1653
aF6.925979587
aS'correct'
p1654
aI0
aI2
aS'true'
p1655
aF7.960852889
aS'correct'
p1656
aI0
aI3
aS'true'
p1657
aF11.008327922
aS'correct'
p1658
aI0
aI4
aS'true'
p1659
aF17.701004414
aS'correct'
p1660
aI0
aI5
aS'true'
p1661
aF33.228206084
aS'correct'
p1662
aI0
aI6
aS'true'
p1663
aF102.176143763
aS'correct'
p1664
aI0
aI7
aS'true'
p1665
aF303.225142722
aS'correct'
p1666
aI0
aI8
aS'TIMEOUT'
p1667
aI500000000
aS'error'
p1668
aI0
aI9
aS'TIMEOUT'
p1669
aI500000000
aS'error'
p1670
aI0
aI10
aS'TIMEOUT'
p1671
aI500000000
aS'error'
p1672
asS'ssh/s3_clnt.blast.02_true-unreach-call.i.cil.c'
p1673
(lp1674
I0
aI1
aS'true'
p1675
aF5.981221454
aS'correct'
p1676
aI0
aI2
aS'true'
p1677
aF6.520115638
aS'correct'
p1678
aI0
aI3
aS'true'
p1679
aF7.94950134
aS'correct'
p1680
aI0
aI4
aS'true'
p1681
aF11.069344721
aS'correct'
p1682
aI0
aI5
aS'true'
p1683
aF16.706734422
aS'correct'
p1684
aI0
aI6
aS'true'
p1685
aF101.441157348
aS'correct'
p1686
aI0
aI7
aS'true'
p1687
aF168.400265516
aS'correct'
p1688
aI0
aI8
aS'TIMEOUT'
p1689
aI500000000
aS'error'
p1690
aI0
aI9
aS'TIMEOUT'
p1691
aI500000000
aS'error'
p1692
aI0
aI10
aS'TIMEOUT'
p1693
aI500000000
aS'error'
p1694
asS'locks/test_locks_14_true-unreach-call_true-valid-memsafety_false-termination.c'
p1695
(lp1696
I0
aI1
aS'true'
p1697
aF7.402213014
aS'correct'
p1698
aI0
aI2
aS'true'
p1699
aF7.319517123
aS'correct'
p1700
aI0
aI3
aS'true'
p1701
aF7.333449236
aS'correct'
p1702
aI0
aI4
aS'true'
p1703
aF7.265649504
aS'correct'
p1704
aI0
aI5
aS'true'
p1705
aF7.330685957
aS'correct'
p1706
aI0
aI6
aS'true'
p1707
aF7.345623774
aS'correct'
p1708
aI0
aI7
aS'true'
p1709
aF7.290085959
aS'correct'
p1710
aI0
aI8
aS'true'
p1711
aF7.290191178
aS'correct'
p1712
aI0
aI9
aS'true'
p1713
aF7.301111152
aS'correct'
p1714
aI0
aI10
aS'true'
p1715
aF7.268488259
aS'correct'
p1716
asS'ntdrivers/diskperf_true-unreach-call.i.cil.c'
p1717
(lp1718
I0
aI1
aS'true'
p1719
aF147.923152441
aS'correct'
p1720
aI0
aI2
aS'true'
p1721
aF145.848502901
aS'correct'
p1722
aI0
aI3
aS'true'
p1723
aF147.403150731
aS'correct'
p1724
aI0
aI4
aS'true'
p1725
aF146.527622981
aS'correct'
p1726
aI0
aI5
aS'true'
p1727
aF144.288967026
aS'correct'
p1728
aI0
aI6
aS'true'
p1729
aF145.178679866
aS'correct'
p1730
aI0
aI7
aS'true'
p1731
aF146.712030676
aS'correct'
p1732
aI0
aI8
aS'true'
p1733
aF146.051589363
aS'correct'
p1734
aI0
aI9
aS'true'
p1735
aF147.974009451
aS'correct'
p1736
aI0
aI10
aS'true'
p1737
aF146.67591794
aS'correct'
p1738
asS'ssh/s3_clnt.blast.01_true-unreach-call.i.cil.c'
p1739
(lp1740
I0
aI1
aS'true'
p1741
aF6.062929123
aS'correct'
p1742
aI0
aI2
aS'true'
p1743
aF6.559726142
aS'correct'
p1744
aI0
aI3
aS'true'
p1745
aF7.949896349
aS'correct'
p1746
aI0
aI4
aS'true'
p1747
aF11.425740913
aS'correct'
p1748
aI0
aI5
aS'true'
p1749
aF16.935564681
aS'correct'
p1750
aI0
aI6
aS'true'
p1751
aF130.774736039
aS'correct'
p1752
aI0
aI7
aS'true'
p1753
aF432.807565492
aS'correct'
p1754
aI0
aI8
aS'TIMEOUT'
p1755
aI500000000
aS'error'
p1756
aI0
aI9
aS'TIMEOUT'
p1757
aI500000000
aS'error'
p1758
aI0
aI10
aS'TIMEOUT'
p1759
aI500000000
aS'error'
p1760
asS'locks/test_locks_8_true-unreach-call_true-valid-memsafety_false-termination.c'
p1761
(lp1762
I0
aI1
aS'true'
p1763
aF3.303459024
aS'correct'
p1764
aI0
aI2
aS'true'
p1765
aF3.338535891
aS'correct'
p1766
aI0
aI3
aS'true'
p1767
aF3.367496462
aS'correct'
p1768
aI0
aI4
aS'true'
p1769
aF3.268918285
aS'correct'
p1770
aI0
aI5
aS'true'
p1771
aF3.289445415
aS'correct'
p1772
aI0
aI6
aS'true'
p1773
aF3.295096342
aS'correct'
p1774
aI0
aI7
aS'true'
p1775
aF3.289956799
aS'correct'
p1776
aI0
aI8
aS'true'
p1777
aF3.358338761
aS'correct'
p1778
aI0
aI9
aS'true'
p1779
aF3.329892193
aS'correct'
p1780
aI0
aI10
aS'true'
p1781
aF3.305858498
aS'correct'
p1782
asS'ntdrivers/cdaudio_true-unreach-call.i.cil.c'
p1783
(lp1784
I0
aI1
aS'true'
p1785
aF81.803059245
aS'correct'
p1786
aI0
aI2
aS'true'
p1787
aF84.715151949
aS'correct'
p1788
aI0
aI3
aS'true'
p1789
aF84.744574928
aS'correct'
p1790
aI0
aI4
aS'true'
p1791
aF85.742071743
aS'correct'
p1792
aI0
aI5
aS'true'
p1793
aF87.657973415
aS'correct'
p1794
aI0
aI6
aS'true'
p1795
aF87.912863388
aS'correct'
p1796
aI0
aI7
aS'true'
p1797
aF87.352158133
aS'correct'
p1798
aI0
aI8
aS'true'
p1799
aF86.892563407
aS'correct'
p1800
aI0
aI9
aS'true'
p1801
aF88.795618328
aS'correct'
p1802
aI0
aI10
aS'true'
p1803
aF88.729677709
aS'correct'
p1804
asS'ntdrivers-simplified/cdaudio_simpl1_false-unreach-call_true-valid-memsafety_true-termination.cil.c'
p1805
(lp1806
I0
aI1
aS'false(reach)'
p1807
aF62.770802281
aS'correct'
p1808
aI0
aI2
aS'false(reach)'
p1809
aF62.147101077
aS'correct'
p1810
aI0
aI3
aS'false(reach)'
p1811
aF62.484634863
aS'correct'
p1812
aI0
aI4
aS'false(reach)'
p1813
aF62.628933653
aS'correct'
p1814
aI0
aI5
aS'false(reach)'
p1815
aF62.159931499
aS'correct'
p1816
aI0
aI6
aS'false(reach)'
p1817
aF61.991678199
aS'correct'
p1818
aI0
aI7
aS'false(reach)'
p1819
aF61.755384608
aS'correct'
p1820
aI0
aI8
aS'false(reach)'
p1821
aF62.046217555
aS'correct'
p1822
aI0
aI9
aS'false(reach)'
p1823
aF61.937047354
aS'correct'
p1824
aI0
aI10
aS'false(reach)'
p1825
aF62.25189269
aS'correct'
p1826
asS'ntdrivers/cdaudio_false-unreach-call.i.cil.c'
p1827
(lp1828
I0
aI1
aS'TIMEOUT'
p1829
aI500000000
aS'error'
p1830
aI0
aI2
aS'TIMEOUT'
p1831
aI500000000
aS'error'
p1832
aI0
aI3
aS'TIMEOUT'
p1833
aI500000000
aS'error'
p1834
aI0
aI4
aS'TIMEOUT'
p1835
aI500000000
aS'error'
p1836
aI0
aI5
aS'TIMEOUT'
p1837
aI500000000
aS'error'
p1838
aI0
aI6
aS'TIMEOUT'
p1839
aI500000000
aS'error'
p1840
aI0
aI7
aS'TIMEOUT'
p1841
aI500000000
aS'error'
p1842
aI0
aI8
aS'TIMEOUT'
p1843
aI500000000
aS'error'
p1844
aI0
aI9
aS'TIMEOUT'
p1845
aI500000000
aS'error'
p1846
aI0
aI10
aS'TIMEOUT'
p1847
aI500000000
aS'error'
p1848
asS'ssh/s3_srvr.blast.16_true-unreach-call.i.cil.c'
p1849
(lp1850
I0
aI1
aS'true'
p1851
aF7.358752792
aS'correct'
p1852
aI0
aI2
aS'true'
p1853
aF8.245480026
aS'correct'
p1854
aI0
aI3
aS'true'
p1855
aF10.133817752
aS'correct'
p1856
aI0
aI4
aS'true'
p1857
aF13.800080731
aS'correct'
p1858
aI0
aI5
aS'true'
p1859
aF21.82238661
aS'correct'
p1860
aI0
aI6
aS'true'
p1861
aF41.368878331
aS'correct'
p1862
aI0
aI7
aS'true'
p1863
aF73.79398555
aS'correct'
p1864
aI0
aI8
aS'true'
p1865
aF130.922168229
aS'correct'
p1866
aI0
aI9
aS'true'
p1867
aF248.213112331
aS'correct'
p1868
aI0
aI10
aS'true'
p1869
aF502.007358654
aS'correct'
p1870
asS'ssh-simplified/s3_srvr_2_false-unreach-call.cil.c'
p1871
(lp1872
I0
aI1
aS'true'
p1873
aI500000000
aS'wrong'
p1874
aI0
aI2
aS'true'
p1875
aI500000000
aS'wrong'
p1876
aI0
aI3
aS'true'
p1877
aI500000000
aS'wrong'
p1878
aI0
aI4
aS'false(reach)'
p1879
aF7.634269564
aS'correct'
p1880
aI0
aI5
aS'false(reach)'
p1881
aF7.665636036
aS'correct'
p1882
aI0
aI6
aS'false(reach)'
p1883
aF7.437639448
aS'correct'
p1884
aI0
aI7
aS'false(reach)'
p1885
aF7.5002798
aS'correct'
p1886
aI0
aI8
aS'false(reach)'
p1887
aF7.494313855
aS'correct'
p1888
aI0
aI9
aS'false(reach)'
p1889
aF7.497227401
aS'correct'
p1890
aI0
aI10
aS'false(reach)'
p1891
aF7.555876811
aS'correct'
p1892
asS'ssh/s3_srvr.blast.08_false-unreach-call.i.cil.c'
p1893
(lp1894
I0
aI1
aS'true'
p1895
aI500000000
aS'wrong'
p1896
aI0
aI2
aS'true'
p1897
aI500000000
aS'wrong'
p1898
aI0
aI3
aS'true'
p1899
aI500000000
aS'wrong'
p1900
aI0
aI4
aS'true'
p1901
aI500000000
aS'wrong'
p1902
aI0
aI5
aS'true'
p1903
aI500000000
aS'wrong'
p1904
aI0
aI6
aS'true'
p1905
aI500000000
aS'wrong'
p1906
aI0
aI7
aS'TIMEOUT'
p1907
aI500000000
aS'error'
p1908
aI0
aI8
aS'TIMEOUT'
p1909
aI500000000
aS'error'
p1910
aI0
aI9
aS'TIMEOUT'
p1911
aI500000000
aS'error'
p1912
aI0
aI10
aS'TIMEOUT'
p1913
aI500000000
aS'error'
p1914
asS'ssh/s3_srvr.blast.12_true-unreach-call.i.cil.c'
p1915
(lp1916
I0
aI1
aS'true'
p1917
aF7.158160255
aS'correct'
p1918
aI0
aI2
aS'true'
p1919
aF7.942758944
aS'correct'
p1920
aI0
aI3
aS'true'
p1921
aF9.604425258
aS'correct'
p1922
aI0
aI4
aS'true'
p1923
aF13.433231161
aS'correct'
p1924
aI0
aI5
aS'true'
p1925
aF21.220339748
aS'correct'
p1926
aI0
aI6
aS'true'
p1927
aF36.84168007
aS'correct'
p1928
aI0
aI7
aS'true'
p1929
aF65.582344249
aS'correct'
p1930
aI0
aI8
aS'true'
p1931
aF114.808267548
aS'correct'
p1932
aI0
aI9
aS'true'
p1933
aF226.642429914
aS'correct'
p1934
aI0
aI10
aS'true'
p1935
aF471.662532709
aS'correct'
p1936
asS'ssh/s3_clnt.blast.04_true-unreach-call.i.cil.c'
p1937
(lp1938
I0
aI1
aS'true'
p1939
aF6.0479939
aS'correct'
p1940
aI0
aI2
aS'true'
p1941
aF6.581034578
aS'correct'
p1942
aI0
aI3
aS'true'
p1943
aF7.964325381
aS'correct'
p1944
aI0
aI4
aS'true'
p1945
aF10.99406173
aS'correct'
p1946
aI0
aI5
aS'true'
p1947
aF16.668134685
aS'correct'
p1948
aI0
aI6
aS'true'
p1949
aF107.728873749
aS'correct'
p1950
aI0
aI7
aS'true'
p1951
aF184.681969841
aS'correct'
p1952
aI0
aI8
aS'TIMEOUT'
p1953
aI500000000
aS'error'
p1954
aI0
aI9
aS'TIMEOUT'
p1955
aI500000000
aS'error'
p1956
aI0
aI10
aS'TIMEOUT'
p1957
aI500000000
aS'error'
p1958
asS'ssh-simplified/s3_srvr_1_false-unreach-call.cil.c'
p1959
(lp1960
I0
aI1
aS'true'
p1961
aI500000000
aS'wrong'
p1962
aI0
aI2
aS'true'
p1963
aI500000000
aS'wrong'
p1964
aI0
aI3
aS'true'
p1965
aI500000000
aS'wrong'
p1966
aI0
aI4
aS'false(reach)'
p1967
aF7.48288734
aS'correct'
p1968
aI0
aI5
aS'false(reach)'
p1969
aF7.465968448
aS'correct'
p1970
aI0
aI6
aS'false(reach)'
p1971
aF7.395663556
aS'correct'
p1972
aI0
aI7
aS'false(reach)'
p1973
aF7.505828986
aS'correct'
p1974
aI0
aI8
aS'false(reach)'
p1975
aF7.517798142
aS'correct'
p1976
aI0
aI9
aS'false(reach)'
p1977
aF7.407234336
aS'correct'
p1978
aI0
aI10
aS'false(reach)'
p1979
aF7.529423027
aS'correct'
p1980
asS'ssh-simplified/s3_clnt_4_false-unreach-call.cil.c'
p1981
(lp1982
I0
aI1
aS'true'
p1983
aI500000000
aS'wrong'
p1984
aI0
aI2
aS'true'
p1985
aI500000000
aS'wrong'
p1986
aI0
aI3
aS'true'
p1987
aI500000000
aS'wrong'
p1988
aI0
aI4
aS'true'
p1989
aI500000000
aS'wrong'
p1990
aI0
aI5
aS'true'
p1991
aI500000000
aS'wrong'
p1992
aI0
aI6
aS'false(reach)'
p1993
aF8.35104745
aS'correct'
p1994
aI0
aI7
aS'false(reach)'
p1995
aF8.424919638
aS'correct'
p1996
aI0
aI8
aS'false(reach)'
p1997
aF8.293536801
aS'correct'
p1998
aI0
aI9
aS'false(reach)'
p1999
aF8.289805298
aS'correct'
p2000
aI0
aI10
aS'false(reach)'
p2001
aF8.485599301
aS'correct'
p2002
asS'ssh/s3_srvr.blast.02_true-unreach-call.i.cil.c'
p2003
(lp2004
I0
aI1
aS'true'
p2005
aF6.741505064
aS'correct'
p2006
aI0
aI2
aS'true'
p2007
aF7.573769945
aS'correct'
p2008
aI0
aI3
aS'true'
p2009
aF9.336882659
aS'correct'
p2010
aI0
aI4
aS'true'
p2011
aF12.979718035
aS'correct'
p2012
aI0
aI5
aS'true'
p2013
aF40.975410848
aS'correct'
p2014
aI0
aI6
aS'true'
p2015
aF56.013415833
aS'correct'
p2016
aI0
aI7
aS'true'
p2017
aF179.484513098
aS'correct'
p2018
aI0
aI8
aS'TIMEOUT'
p2019
aI500000000
aS'error'
p2020
aI0
aI9
aS'TIMEOUT'
p2021
aI500000000
aS'error'
p2022
aI0
aI10
aS'TIMEOUT'
p2023
aI500000000
aS'error'
p2024
asS'locks/test_locks_6_true-unreach-call_true-valid-memsafety_false-termination.c'
p2025
(lp2026
I0
aI1
aS'true'
p2027
aF3.375797894
aS'correct'
p2028
aI0
aI2
aS'true'
p2029
aF3.228646103
aS'correct'
p2030
aI0
aI3
aS'true'
p2031
aF3.292110198
aS'correct'
p2032
aI0
aI4
aS'true'
p2033
aF3.198163055
aS'correct'
p2034
aI0
aI5
aS'true'
p2035
aF3.225852013
aS'correct'
p2036
aI0
aI6
aS'true'
p2037
aF3.228047524
aS'correct'
p2038
aI0
aI7
aS'true'
p2039
aF3.162227635
aS'correct'
p2040
aI0
aI8
aS'true'
p2041
aF3.3079013
aS'correct'
p2042
aI0
aI9
aS'true'
p2043
aF3.23725721
aS'correct'
p2044
aI0
aI10
aS'true'
p2045
aF3.284490214
aS'correct'
p2046
asS'ssh/s3_srvr.blast.10_true-unreach-call.i.cil.c'
p2047
(lp2048
I0
aI1
aS'true'
p2049
aF7.090139669
aS'correct'
p2050
aI0
aI2
aS'true'
p2051
aF7.672992727
aS'correct'
p2052
aI0
aI3
aS'true'
p2053
aF9.605098789
aS'correct'
p2054
aI0
aI4
aS'true'
p2055
aF13.182010452
aS'correct'
p2056
aI0
aI5
aS'true'
p2057
aF20.923202435
aS'correct'
p2058
aI0
aI6
aS'true'
p2059
aF37.217120463
aS'correct'
p2060
aI0
aI7
aS'true'
p2061
aF66.912080512
aS'correct'
p2062
aI0
aI8
aS'TIMEOUT'
p2063
aI500000000
aS'error'
p2064
aI0
aI9
aS'TIMEOUT'
p2065
aI500000000
aS'error'
p2066
aI0
aI10
aS'TIMEOUT'
p2067
aI500000000
aS'error'
p2068
as.